Microchip MPLAB XC8 Compiler V2.45

Linker command line:

-W-3 \
  --edf=C:\Program Files\Microchip\xc8\v2.45\pic\dat\20230818022343_en.msgs \
  -cn -h+dist/default/production\botaAquecida.X.production.sym \
  --cmf=dist/default/production\botaAquecida.X.production.cmf -z -Q16F877A \
  -oC:\Users\ferna\AppData\Local\Temp\xcAsd1c.\driver_tmp_3.o \
  --defsym=__MPLAB_BUILD=1 --fixupoverflow=error \
  -Mdist/default/production/botaAquecida.X.production.map \
  --md=C:\Users\ferna\AppData\Local\Temp\xcAsd1c.\driver_tmp_0.dat -E1 \
  -ver=XC8 Compiler --acfsm=1493 -ACODE=00h-07FFhx4 -ASTRCODE=00h-01FFFh \
  -ASTRING=00h-0FFhx32 -ACONST=00h-0FFhx32 -AENTRY=00h-0FFhx32 \
  -ACOMMON=070h-07Fh -ABANK0=020h-06Fh -ABANK1=0A0h-0EFh \
  -ABANK2=0110h-016Fh -ABANK3=0190h-01EFh \
  -ARAM=020h-06Fh,0A0h-0EFh,0110h-016Fh,0190h-01EFh \
  -AABS1=020h-07Fh,0A0h-0EFh,0110h-016Fh,0190h-01EFh -ASFR0=00h-01Fh \
  -ASFR1=080h-09Fh -ASFR2=0100h-010Fh -ASFR3=0180h-018Fh \
  -ACONFIG=02007h-02007h -DCONFIG=2 -AIDLOC=02000h-02003h -DIDLOC=2 \
  -AEEDATA=00h-0FFh/02100h -peeprom_data=EEDATA -DEEDATA=2 -DCODE=2 \
  -DSTRCODE=2 -DSTRING=2 -DCONST=2 -DENTRY=2 \
  -preset_vec=00h,intentry=04h,init,end_init -ppowerup=CODE -pcinit=CODE \
  -pfunctab=ENTRY -k \
  C:\Users\ferna\AppData\Local\Temp\xcAsd1c.\driver_tmp_12.o \
  dist/default/production\botaAquecida.X.production.o 

Object code version is 3.11

Machine type is 16F877A



                Name                               Link     Load   Length Selector   Space Scale
C:\Users\ferna\AppData\Local\Temp\xcAsd1c.\driver_tmp_12.o
                end_init                              C        C        3        8       0
                reset_vec                             0        0        3        0       0
                config                             2007     2007        1        0       4
dist/default/production\botaAquecida.X.production.o
                cinit                                 F        F        6        8       0
                intentry                              4        4        8        8       0
                config                             2007     2007        1        0       4
                text14                              C62      C62       18     18C4       0
                text13                              CE7      CE7       A4     19CE       0
                text12                              35A      35A      258        8       0
                text11                              C9A      C9A       24     1934       0
                text10                              D8B      D8B       BA     1B16       0
                text9                               C58      C58        A     18B0       0
                text8                               C7A      C7A       20     18F4       0
                text7                               5B2      5B2      1CF        8       0
                text6                               CBE      CBE       29     197C       0
                text5                                15       15      345        8       0
                text4                               781      781       60        8       0
                text3                               C50      C50        4     18A0       0
                text2                               7E1      7E1       1C        8       0
                text1                               C54      C54        4     18A8       0
                maintext                            E45      E45      1BB     1C8A       0
                cstackBANK0                          20       20       49       20       1
                cstackCOMMON                         70       70        A       70       1
                cstackBANK1                          A0       A0       10       A0       1
                bssCOMMON                            7A       7A        2       70       1

TOTAL           Name                               Link     Load   Length     Space
        CLASS   CODE           
                end_init                              C        C        3         0
                cinit                                 F        F        6         0
                intentry                              4        4        8         0
                reset_vec                             0        0        3         0
                text14                              C62      C62       18         0
                text13                              CE7      CE7       A4         0
                text12                              35A      35A      258         0
                text11                              C9A      C9A       24         0
                text10                              D8B      D8B       BA         0
                text9                               C58      C58        A         0
                text8                               C7A      C7A       20         0
                text7                               5B2      5B2      1CF         0
                text6                               CBE      CBE       29         0
                text5                                15       15      345         0
                text4                               781      781       60         0
                text3                               C50      C50        4         0
                text2                               7E1      7E1       1C         0
                text1                               C54      C54        4         0
                maintext                            E45      E45      1BB         0

        CLASS   STRCODE        

        CLASS   STRING         

        CLASS   CONST          

        CLASS   ENTRY          

        CLASS   COMMON         
                cstackCOMMON                         70       70        A         1
                bssCOMMON                            7A       7A        2         1

        CLASS   BANK0          
                cstackBANK0                          20       20       49         1

        CLASS   BANK1          
                cstackBANK1                          A0       A0       10         1

        CLASS   BANK2          

        CLASS   BANK3          

        CLASS   RAM            

        CLASS   ABS1           
                abs_s1                               7E       7E        2         1

        CLASS   SFR0           

        CLASS   SFR1           

        CLASS   SFR2           

        CLASS   SFR3           

        CLASS   CONFIG         
                config                             2007     2007        1         4

        CLASS   IDLOC          

        CLASS   EEDATA         

        CLASS   HEAP           

        CLASS   STACK          



SEGMENTS        Name                           Load    Length   Top    Selector   Space  Class     Delta

                reset_vec                      000000  000003  000003         0       0  CODE        2
                intentry                       000004  0007F9  0007FD         8       0  CODE        2
                cstackBANK0                    000020  000049  000069        20       1  BANK0       1
                cstackCOMMON                   000070  00000C  00007C        70       1  COMMON      1
                cstackBANK1                    0000A0  000010  0000B0        A0       1  BANK1       1
                text3                          000C50  000004  000C54      18A0       0  CODE        2
                text1                          000C54  000004  000C58      18A8       0  CODE        2
                text9                          000C58  00000A  000C62      18B0       0  CODE        2
                text14                         000C62  000018  000C7A      18C4       0  CODE        2
                text8                          000C7A  000020  000C9A      18F4       0  CODE        2
                text11                         000C9A  000024  000CBE      1934       0  CODE        2
                text6                          000CBE  000029  000CE7      197C       0  CODE        2
                text13                         000CE7  0000A4  000D8B      19CE       0  CODE        2
                text10                         000D8B  0000BA  000E45      1B16       0  CODE        2
                maintext                       000E45  0001BB  001000      1C8A       0  CODE        2


UNUSED ADDRESS RANGES

        Name                Unused          Largest block    Delta
        BANK0            0069-006F              7           1
        BANK1            00B0-00EF             40           1
        BANK2            0110-016F             60           1
        BANK3            0190-01EF             60           1
        CODE             0003-0003              1           2
                         07FD-0C4F              3
                         1000-1FFF            800
        COMMON           007C-007D              2           1
        CONST            0003-0003              1           2
                         07FD-0C4F            100
                         1000-1FFF            100
        EEDATA           2100-21FF            100           2
        ENTRY            0003-0003              1           2
                         07FD-0C4F            100
                         1000-1FFF            100
        IDLOC            2000-2003              4           2
        RAM              0069-006F              7           1
                         00B0-00EF             40
                         0110-016F             60
                         0190-01EF             60
        SFR0             0000-001F             20           1
        SFR1             0080-009F             20           1
        SFR2             0100-010F             10           1
        SFR3             0180-018F             10           1
        STRCODE          0003-0003              1           2
                         07FD-0C4F            453
                         1000-1FFF           1000
        STRING           0003-0003              1           2
                         07FD-0C4F            100
                         1000-1FFF            100

                                  Symbol Table

?__Umul8_16                      cstackCOMMON 0072
?___fladd                        cstackCOMMON 0072
?___fldiv                        cstackBANK0  003F
?___flmul                        cstackBANK0  0025
?___flsub                        cstackBANK0  002C
?___xxtofl                       cstackCOMMON 0072
?_calcular_temperatura           cstackBANK0  0059
_ADCON0                          (abs)        001F
_ADCON0bits                      (abs)        001F
_ADCON1                          (abs)        009F
_ADCON1bits                      (abs)        009F
_ADRESH                          (abs)        001E
_ADRESL                          (abs)        009E
_INTCONbits                      (abs)        000B
_OPTION_REGbits                  (abs)        0081
_PIE1bits                        (abs)        008C
_PIR1bits                        (abs)        000C
_PORTB                           (abs)        0006
_PORTBbits                       (abs)        0006
_PORTC                           (abs)        0007
_PORTCbits                       (abs)        0007
_PORTDbits                       (abs)        0008
_TRISA                           (abs)        0085
_TRISB                           (abs)        0086
_TRISBbits                       (abs)        0086
_TRISC                           (abs)        0087
_TrataInt                        text14       0C62
__H__absolute__                  __absolute__ 0000
__Habs1                          abs1         0000
__Hbank0                         bank0        0000
__Hbank1                         bank1        0000
__Hbank2                         bank2        0000
__Hbank3                         bank3        0000
__HbssCOMMON                     bssCOMMON    0000
__Hcinit                         cinit        0015
__Hclrtext                       clrtext      0000
__Hcode                          code         0000
__Hcommon                        common       0000
__Hconfig                        config       2008
__HcstackBANK0                   cstackBANK0  0000
__HcstackBANK1                   cstackBANK1  0000
__HcstackCOMMON                  cstackCOMMON 0000
__Heeprom_data                   eeprom_data  0000
__Hend_init                      end_init     000F
__Hfunctab                       functab      0000
__Hheap                          heap         0000
__Hinit                          init         000C
__Hintentry                      intentry     000C
__Hmaintext                      maintext     0000
__Hpowerup                       powerup      0000
__Hram                           ram          0000
__Hreset_vec                     reset_vec    0003
__Hsfr0                          sfr0         0000
__Hsfr1                          sfr1         0000
__Hsfr2                          sfr2         0000
__Hsfr3                          sfr3         0000
__Hspace_0                       (abs)        1000
__Hspace_1                       (abs)        00B0
__Hspace_2                       (abs)        0000
__Hspace_3                       (abs)        0000
__Hspace_4                       (abs)        400F
__Hstack                         stack        0000
__Hstrings                       strings      0000
__Htext                          text         0000
__L__absolute__                  __absolute__ 0000
__Labs1                          abs1         0000
__Lbank0                         bank0        0000
__Lbank1                         bank1        0000
__Lbank2                         bank2        0000
__Lbank3                         bank3        0000
__LbssCOMMON                     bssCOMMON    0000
__Lcinit                         cinit        000F
__Lclrtext                       clrtext      0000
__Lcode                          code         0000
__Lcommon                        common       0000
__Lconfig                        config       0000
__LcstackBANK0                   cstackBANK0  0000
__LcstackBANK1                   cstackBANK1  0000
__LcstackCOMMON                  cstackCOMMON 0000
__Leeprom_data                   eeprom_data  0000
__Lend_init                      end_init     000C
__Lfunctab                       functab      0000
__Lheap                          heap         0000
__Linit                          init         000C
__Lintentry                      intentry     0004
__Lmaintext                      maintext     0000
__Lpowerup                       powerup      0000
__Lram                           ram          0000
__Lreset_vec                     reset_vec    0000
__Lsfr0                          sfr0         0000
__Lsfr1                          sfr1         0000
__Lsfr2                          sfr2         0000
__Lsfr3                          sfr3         0000
__Lspace_0                       (abs)        0000
__Lspace_1                       (abs)        0000
__Lspace_2                       (abs)        0000
__Lspace_3                       (abs)        0000
__Lspace_4                       (abs)        0000
__Lstack                         stack        0000
__Lstrings                       strings      0000
__Ltext                          text         0000
__S0                             (abs)        1000
__S1                             (abs)        00B0
__S3                             (abs)        0000
__Umul8_16                       text6        0CBE
__Umul8_16@multiplicand          cstackCOMMON 0072
__Umul8_16@multiplier            cstackBANK0  0024
__Umul8_16@product               cstackBANK0  0020
__Umul8_16@word_mpld             cstackBANK0  0022
___fladd                         text12       035A
___fladd@a                       cstackCOMMON 0076
___fladd@aexp                    cstackBANK0  0029
___fladd@b                       cstackCOMMON 0072
___fladd@bexp                    cstackBANK0  002A
___fladd@grs                     cstackBANK0  002B
___fladd@signs                   cstackBANK0  0028
___fldiv                         text7        05B2
___fldiv@a                       cstackBANK0  003F
___fldiv@aexp                    cstackBANK0  0058
___fldiv@b                       cstackBANK0  0043
___fldiv@bexp                    cstackBANK0  0057
___fldiv@grs                     cstackBANK0  0053
___fldiv@new_exp                 cstackBANK0  0051
___fldiv@rem                     cstackBANK0  004C
___fldiv@sign                    cstackBANK0  0050
___flge                          text13       0CE7
___flge@ff1                      cstackCOMMON 0072
___flge@ff2                      cstackCOMMON 0076
___flmul                         text5        0015
___flmul@a                       cstackBANK0  0029
___flmul@aexp                    cstackBANK0  0033
___flmul@b                       cstackBANK0  0025
___flmul@bexp                    cstackBANK0  0038
___flmul@grs                     cstackBANK0  0034
___flmul@prod                    cstackBANK0  0039
___flmul@sign                    cstackBANK0  0032
___flmul@temp                    cstackBANK0  003D
___flsub                         text11       0C9A
___flsub@a                       cstackBANK0  002C
___flsub@b                       cstackBANK0  0030
___heap_hi                       (abs)        0000
___heap_lo                       (abs)        0000
___int_sp                        stack        0000
___int_stack_hi                  stack        0000
___int_stack_lo                  stack        0000
___latbits                       (abs)        0002
___sp                            stack        0000
___stack_hi                      stack        0000
___stack_lo                      stack        0000
___stackhi                       (abs)        0000
___stacklo                       (abs)        0000
___xxtofl                        text10       0D8B
___xxtofl@arg                    cstackBANK0  0022
___xxtofl@exp                    cstackBANK0  0021
___xxtofl@sign                   cstackBANK0  0020
___xxtofl@val                    cstackCOMMON 0072
__end_of_TrataInt                text14       0C7A
__end_of__Umul8_16               text6        0CE7
__end_of___fladd                 text12       05B2
__end_of___fldiv                 text7        0781
__end_of___flge                  text13       0D8B
__end_of___flmul                 text5        035A
__end_of___flsub                 text11       0CBE
__end_of___xxtofl                text10       0E45
__end_of__initialization         cinit        0011
__end_of_aumentar                text8        0C9A
__end_of_calcular_temperatura    text4        07E1
__end_of_desligar_aquecedor      text3        0C54
__end_of_diminuir                text2        07FD
__end_of_ligar_aquecedor         text1        0C58
__end_of_main                    maintext     1000
__end_of_temporizer              text9        0C62
__initialization                 cinit        000F
__pbssCOMMON                     bssCOMMON    007A
__pcstackBANK0                   cstackBANK0  0020
__pcstackBANK1                   cstackBANK1  00A0
__pcstackCOMMON                  cstackCOMMON 0070
__pintentry                      intentry     0004
__pmaintext                      maintext     0E45
__ptext1                         text1        0C54
__ptext10                        text10       0D8B
__ptext11                        text11       0C9A
__ptext12                        text12       035A
__ptext13                        text13       0CE7
__ptext14                        text14       0C62
__ptext2                         text2        07E1
__ptext3                         text3        0C50
__ptext4                         text4        0781
__ptext5                         text5        0015
__ptext6                         text6        0CBE
__ptext7                         text7        05B2
__ptext8                         text8        0C7A
__ptext9                         text9        0C58
_aumentar                        text8        0C7A
_calcular_temperatura            text4        0781
_calcular_temperatura$1002       cstackBANK0  0061
_desligar_aquecedor              text3        0C50
_diminuir                        text2        07E1
_ligar_aquecedor                 text1        0C54
_main                            maintext     0E45
_temporizer                      text9        0C58
_valor                           bssCOMMON    007A
btemp                            (abs)        007E
calcular_temperatura@temperatura cstackBANK0  005D
calcular_temperatura@valor       cstackBANK0  0059
end_of_initialization            cinit        0011
interrupt_function               intentry     0004
intlevel0                        functab      0000
intlevel1                        functab      0000
intlevel2                        functab      0000
intlevel3                        functab      0000
intlevel4                        functab      0000
intlevel5                        functab      0000
main@temperatura_do_sensor       cstackBANK1  00A8
main@temperatura_do_usuario      cstackBANK1  00AC
main@temperatura_requerida       cstackBANK1  00A0
main@valor_do_sensor             cstackBANK1  00A4
reset_vec                        reset_vec    0000
saved_w                          (abs)        007E
start                            init         000C
start_initialization             cinit        000F
wtemp0                           (abs)        007E


MODULE INFORMATION

Module		Function		Class		Link	Load	Size
C:\Program Files\Microchip\xc8\v2.45\pic\sources\c99\common\sprcmul.c
		___flmul       		CODE           	0015	0000	837

C:\Program Files\Microchip\xc8\v2.45\pic\sources\c99\common\sprcmul.c estimated size: 837

C:\Program Files\Microchip\xc8\v2.45\pic\sources\c99\common\sprcdiv.c
		___fldiv       		CODE           	05B2	0000	463

C:\Program Files\Microchip\xc8\v2.45\pic\sources\c99\common\sprcdiv.c estimated size: 463

C:\Program Files\Microchip\xc8\v2.45\pic\sources\c99\common\flge.c
		___flge        		CODE           	0CE7	0000	164

C:\Program Files\Microchip\xc8\v2.45\pic\sources\c99\common\flge.c estimated size: 164

shared
		__initialization		CODE           	000F	0000	2

shared estimated size: 2

C:\Program Files\Microchip\xc8\v2.45\pic\sources\c99\common\xxtofl.c
		___xxtofl      		CODE           	0D8B	0000	186

C:\Program Files\Microchip\xc8\v2.45\pic\sources\c99\common\xxtofl.c estimated size: 186

C:\Program Files\Microchip\xc8\v2.45\pic\sources\c99\common\Umul8_16.c
		__Umul8_16     		CODE           	0CBE	0000	41

C:\Program Files\Microchip\xc8\v2.45\pic\sources\c99\common\Umul8_16.c estimated size: 41

C:\Program Files\Microchip\xc8\v2.45\pic\sources\c99\common\sprcadd.c
		___flsub       		CODE           	0C9A	0000	36
		___fladd       		CODE           	035A	0000	600

C:\Program Files\Microchip\xc8\v2.45\pic\sources\c99\common\sprcadd.c estimated size: 636

main.c
		_TrataInt      		CODE           	0C62	0000	24
		_main          		CODE           	0E45	0000	443
		_temporizer    		CODE           	0C58	0000	10
		_calcular_temperatura		CODE           	0781	0000	96
		_desligar_aquecedor		CODE           	0C50	0000	4
		_diminuir      		CODE           	07E1	0000	28
		_aumentar      		CODE           	0C7A	0000	32
		_ligar_aquecedor		CODE           	0C54	0000	4

main.c estimated size: 641

