

Microchip MPLAB XC8 Assembler V2.45 build 20230818022343 
                                                                                               Wed Nov 29 18:46:58 2023

Microchip MPLAB XC8 C Compiler v2.45 (Free license) build 20230818022343 Og1 
     1                           	processor	16F877A
     2                           	pagewidth 120
     3                           	opt	flic
     4                           	psect	cinit,global,class=CODE,merge=1,delta=2
     5                           	psect	bssCOMMON,global,class=COMMON,space=1,delta=1,noexec
     6                           	psect	cstackBANK1,global,class=BANK1,space=1,delta=1,noexec
     7                           	psect	cstackCOMMON,global,class=COMMON,space=1,delta=1,noexec
     8                           	psect	cstackBANK0,global,class=BANK0,space=1,delta=1,noexec
     9                           	psect	maintext,global,class=CODE,split=1,delta=2
    10                           	psect	text1,local,class=CODE,merge=1,delta=2
    11                           	psect	text2,local,class=CODE,merge=1,delta=2
    12                           	psect	text3,local,class=CODE,merge=1,delta=2
    13                           	psect	text4,local,class=CODE,merge=1,delta=2
    14                           	psect	text5,local,class=CODE,merge=1,delta=2,group=1
    15                           	psect	text6,local,class=CODE,merge=1,delta=2,group=1
    16                           	psect	text7,local,class=CODE,merge=1,delta=2,group=1
    17                           	psect	text8,local,class=CODE,merge=1,delta=2
    18                           	psect	text9,local,class=CODE,merge=1,delta=2
    19                           	psect	text10,local,class=CODE,merge=1,delta=2,group=1
    20                           	psect	text11,local,class=CODE,merge=1,delta=2,group=1
    21                           	psect	text12,local,class=CODE,merge=1,delta=2,group=1
    22                           	psect	text13,local,class=CODE,merge=1,delta=2,group=1
    23                           	psect	text14,local,class=CODE,merge=1,delta=2
    24                           	psect	intentry,global,class=CODE,delta=2
    25                           	psect	config,global,abs,ovrld,class=CONFIG,space=4,delta=2,noexec
    26                           	dabs	1,0x7E,2
    27     0000                     
    28                           ; Version 2.20
    29                           ; Generated 12/02/2020 GMT
    30                           ; 
    31                           ; Copyright © 2020, Microchip Technology Inc. and its subsidiaries ("Microchip")
    32                           ; All rights reserved.
    33                           ; 
    34                           ; This software is developed by Microchip Technology Inc. and its subsidiaries ("Microch
      +                          ip").
    35                           ; 
    36                           ; Redistribution and use in source and binary forms, with or without modification, are
    37                           ; permitted provided that the following conditions are met:
    38                           ; 
    39                           ;     1. Redistributions of source code must retain the above copyright notice, this lis
      +                          t of
    40                           ;        conditions and the following disclaimer.
    41                           ; 
    42                           ;     2. Redistributions in binary form must reproduce the above copyright notice, this 
      +                          list
    43                           ;        of conditions and the following disclaimer in the documentation and/or other
    44                           ;        materials provided with the distribution.
    45                           ; 
    46                           ;     3. Microchip's name may not be used to endorse or promote products derived from th
      +                          is
    47                           ;        software without specific prior written permission.
    48                           ; 
    49                           ; THIS SOFTWARE IS PROVIDED BY MICROCHIP "AS IS" AND ANY EXPRESS OR IMPLIED WARRANTIES,
    50                           ; INCLUDING, BUT NOT LIMITED TO, THE IMPLIED WARRANTIES OF MERCHANTABILITY AND FITNESS F
      +                          OR
    51                           ; PURPOSE ARE DISCLAIMED.  IN NO EVENT SHALL MICROCHIP BE LIABLE FOR ANY DIRECT, INDIREC
      +                          T,
    52                           ; INCIDENTAL, SPECIAL, EXEMPLARY, OR CONSEQUENTIAL DAMAGES (INCLUDING BUT NOT LIMITED TO
    53                           ; PROCUREMENT OF SUBSTITUTE GOODS OR SERVICES; LOSS OF USE, DATA OR PROFITS; OR BUSINESS
    54                           ; INTERRUPTION) HOWSOEVER CAUSED AND ON ANY THEORY OF LIABILITY, WHETHER IN CONTRACT, ST
      +                          RICT
    55                           ; LIABILITY, OR TORT (INCLUDING NEGLIGENCE OR OTHERWISE) ARISING IN ANY WAY OUT OF THE U
      +                          SE OF
    56                           ; THIS SOFTWARE, EVEN IF ADVISED OF THE POSSIBILITY OF SUCH DAMAGE.
    57                           ; 
    58                           ; 
    59                           ; Code-generator required, PIC16F877A Definitions
    60                           ; 
    61                           ; SFR Addresses
    62     0000                     	;# 
    63     0001                     	;# 
    64     0002                     	;# 
    65     0003                     	;# 
    66     0004                     	;# 
    67     0005                     	;# 
    68     0006                     	;# 
    69     0007                     	;# 
    70     0008                     	;# 
    71     0009                     	;# 
    72     000A                     	;# 
    73     000B                     	;# 
    74     000C                     	;# 
    75     000D                     	;# 
    76     000E                     	;# 
    77     000E                     	;# 
    78     000F                     	;# 
    79     0010                     	;# 
    80     0011                     	;# 
    81     0012                     	;# 
    82     0013                     	;# 
    83     0014                     	;# 
    84     0015                     	;# 
    85     0015                     	;# 
    86     0016                     	;# 
    87     0017                     	;# 
    88     0018                     	;# 
    89     0019                     	;# 
    90     001A                     	;# 
    91     001B                     	;# 
    92     001B                     	;# 
    93     001C                     	;# 
    94     001D                     	;# 
    95     001E                     	;# 
    96     001F                     	;# 
    97     0081                     	;# 
    98     0085                     	;# 
    99     0086                     	;# 
   100     0087                     	;# 
   101     0088                     	;# 
   102     0089                     	;# 
   103     008C                     	;# 
   104     008D                     	;# 
   105     008E                     	;# 
   106     0091                     	;# 
   107     0092                     	;# 
   108     0093                     	;# 
   109     0094                     	;# 
   110     0098                     	;# 
   111     0099                     	;# 
   112     009C                     	;# 
   113     009D                     	;# 
   114     009E                     	;# 
   115     009F                     	;# 
   116     010C                     	;# 
   117     010D                     	;# 
   118     010E                     	;# 
   119     010F                     	;# 
   120     018C                     	;# 
   121     018D                     	;# 
   122     0000                     	;# 
   123     0001                     	;# 
   124     0002                     	;# 
   125     0003                     	;# 
   126     0004                     	;# 
   127     0005                     	;# 
   128     0006                     	;# 
   129     0007                     	;# 
   130     0008                     	;# 
   131     0009                     	;# 
   132     000A                     	;# 
   133     000B                     	;# 
   134     000C                     	;# 
   135     000D                     	;# 
   136     000E                     	;# 
   137     000E                     	;# 
   138     000F                     	;# 
   139     0010                     	;# 
   140     0011                     	;# 
   141     0012                     	;# 
   142     0013                     	;# 
   143     0014                     	;# 
   144     0015                     	;# 
   145     0015                     	;# 
   146     0016                     	;# 
   147     0017                     	;# 
   148     0018                     	;# 
   149     0019                     	;# 
   150     001A                     	;# 
   151     001B                     	;# 
   152     001B                     	;# 
   153     001C                     	;# 
   154     001D                     	;# 
   155     001E                     	;# 
   156     001F                     	;# 
   157     0081                     	;# 
   158     0085                     	;# 
   159     0086                     	;# 
   160     0087                     	;# 
   161     0088                     	;# 
   162     0089                     	;# 
   163     008C                     	;# 
   164     008D                     	;# 
   165     008E                     	;# 
   166     0091                     	;# 
   167     0092                     	;# 
   168     0093                     	;# 
   169     0094                     	;# 
   170     0098                     	;# 
   171     0099                     	;# 
   172     009C                     	;# 
   173     009D                     	;# 
   174     009E                     	;# 
   175     009F                     	;# 
   176     010C                     	;# 
   177     010D                     	;# 
   178     010E                     	;# 
   179     010F                     	;# 
   180     018C                     	;# 
   181     018D                     	;# 
   182     0006                     _PORTBbits	set	6
   183     0008                     _PORTDbits	set	8
   184     001F                     _ADCON0	set	31
   185     0007                     _PORTC	set	7
   186     0007                     _PORTCbits	set	7
   187     001F                     _ADCON0bits	set	31
   188     000B                     _INTCONbits	set	11
   189     0006                     _PORTB	set	6
   190     001E                     _ADRESH	set	30
   191     000C                     _PIR1bits	set	12
   192     009F                     _ADCON1	set	159
   193     0086                     _TRISBbits	set	134
   194     009F                     _ADCON1bits	set	159
   195     0081                     _OPTION_REGbits	set	129
   196     0085                     _TRISA	set	133
   197     0087                     _TRISC	set	135
   198     0086                     _TRISB	set	134
   199     008C                     _PIE1bits	set	140
   200     009E                     _ADRESL	set	158
   201                           
   202                           	psect	cinit
   203     000F                     start_initialization:	
   204                           ; #config settings
   205                           
   206     000F                     __initialization:
   207                           
   208                           ; Clear objects allocated to COMMON
   209     000F  01FA               	clrf	__pbssCOMMON& (0+127)
   210     0010  01FB               	clrf	(__pbssCOMMON+1)& (0+127)
   211     0011                     end_of_initialization:	
   212                           ;End of C runtime variable initialization code
   213                           
   214     0011                     __end_of__initialization:
   215     0011  0183               	clrf	3
   216     0012  120A  158A  2E45   	ljmp	_main	;jump to C main() function
   217                           
   218                           	psect	bssCOMMON
   219     007A                     __pbssCOMMON:
   220     007A                     _valor:
   221     007A                     	ds	2
   222                           
   223                           	psect	cstackBANK1
   224     00A0                     __pcstackBANK1:
   225     00A0                     main@temperatura_requerida:
   226                           
   227                           ; 4 bytes @ 0x0
   228     00A0                     	ds	4
   229     00A4                     main@valor_do_sensor:
   230                           
   231                           ; 4 bytes @ 0x4
   232     00A4                     	ds	4
   233     00A8                     main@temperatura_do_sensor:
   234                           
   235                           ; 4 bytes @ 0x8
   236     00A8                     	ds	4
   237     00AC                     main@temperatura_do_usuario:
   238                           
   239                           ; 4 bytes @ 0xC
   240     00AC                     	ds	4
   241                           
   242                           	psect	cstackCOMMON
   243     0070                     __pcstackCOMMON:
   244     0070                     ?_aumentar:
   245     0070                     ?_diminuir:	
   246                           ; 1 bytes @ 0x0
   247                           
   248     0070                     ?_ligar_aquecedor:	
   249                           ; 1 bytes @ 0x0
   250                           
   251     0070                     ?_temporizer:	
   252                           ; 1 bytes @ 0x0
   253                           
   254     0070                     ?_desligar_aquecedor:	
   255                           ; 1 bytes @ 0x0
   256                           
   257     0070                     ?_TrataInt:	
   258                           ; 1 bytes @ 0x0
   259                           
   260     0070                     ??_TrataInt:	
   261                           ; 1 bytes @ 0x0
   262                           
   263     0070                     ?_main:	
   264                           ; 1 bytes @ 0x0
   265                           
   266                           
   267                           ; 1 bytes @ 0x0
   268     0070                     	ds	2
   269     0072                     ?___flge:
   270     0072                     ??_ligar_aquecedor:	
   271                           ; 1 bit 
   272                           
   273     0072                     ??_temporizer:	
   274                           ; 1 bytes @ 0x2
   275                           
   276     0072                     ??_desligar_aquecedor:	
   277                           ; 1 bytes @ 0x2
   278                           
   279     0072                     ?__Umul8_16:	
   280                           ; 1 bytes @ 0x2
   281                           
   282     0072                     ?___fladd:	
   283                           ; 2 bytes @ 0x2
   284                           
   285     0072                     ?___xxtofl:	
   286                           ; 4 bytes @ 0x2
   287                           
   288     0072                     __Umul8_16@multiplicand:	
   289                           ; 4 bytes @ 0x2
   290                           
   291     0072                     ___flge@ff1:	
   292                           ; 1 bytes @ 0x2
   293                           
   294     0072                     ___fladd@b:	
   295                           ; 4 bytes @ 0x2
   296                           
   297     0072                     ___xxtofl@val:	
   298                           ; 4 bytes @ 0x2
   299                           
   300                           
   301                           ; 4 bytes @ 0x2
   302     0072                     	ds	2
   303     0074                     ??_aumentar:
   304     0074                     ??_diminuir:	
   305                           ; 1 bytes @ 0x4
   306                           
   307     0074                     ??__Umul8_16:	
   308                           ; 1 bytes @ 0x4
   309                           
   310                           
   311                           ; 1 bytes @ 0x4
   312     0074                     	ds	2
   313     0076                     ??_calcular_temperatura:
   314     0076                     ??___xxtofl:	
   315                           ; 1 bytes @ 0x6
   316                           
   317     0076                     ___flge@ff2:	
   318                           ; 1 bytes @ 0x6
   319                           
   320     0076                     ___fladd@a:	
   321                           ; 4 bytes @ 0x6
   322                           
   323                           
   324                           ; 4 bytes @ 0x6
   325     0076                     	ds	4
   326     007A                     ??___flsub:
   327                           
   328                           	psect	cstackBANK0
   329     0020                     __pcstackBANK0:	
   330                           ; 1 bytes @ 0xA
   331                           
   332     0020                     ??___flge:
   333     0020                     ??___fladd:	
   334                           ; 1 bytes @ 0x0
   335                           
   336     0020                     ___xxtofl@sign:	
   337                           ; 1 bytes @ 0x0
   338                           
   339     0020                     __Umul8_16@product:	
   340                           ; 1 bytes @ 0x0
   341                           
   342                           
   343                           ; 2 bytes @ 0x0
   344     0020                     	ds	1
   345     0021                     ___xxtofl@exp:
   346                           
   347                           ; 1 bytes @ 0x1
   348     0021                     	ds	1
   349     0022                     __Umul8_16@word_mpld:
   350     0022                     ___xxtofl@arg:	
   351                           ; 2 bytes @ 0x2
   352                           
   353                           
   354                           ; 4 bytes @ 0x2
   355     0022                     	ds	2
   356     0024                     __Umul8_16@multiplier:
   357                           
   358                           ; 1 bytes @ 0x4
   359     0024                     	ds	1
   360     0025                     ?___flmul:
   361     0025                     ___flmul@b:	
   362                           ; 4 bytes @ 0x5
   363                           
   364                           
   365                           ; 4 bytes @ 0x5
   366     0025                     	ds	3
   367     0028                     ___fladd@signs:
   368                           
   369                           ; 1 bytes @ 0x8
   370     0028                     	ds	1
   371     0029                     ___fladd@aexp:
   372     0029                     ___flmul@a:	
   373                           ; 1 bytes @ 0x9
   374                           
   375                           
   376                           ; 4 bytes @ 0x9
   377     0029                     	ds	1
   378     002A                     ___fladd@bexp:
   379                           
   380                           ; 1 bytes @ 0xA
   381     002A                     	ds	1
   382     002B                     ___fladd@grs:
   383                           
   384                           ; 1 bytes @ 0xB
   385     002B                     	ds	1
   386     002C                     ?___flsub:
   387     002C                     ___flsub@a:	
   388                           ; 4 bytes @ 0xC
   389                           
   390                           
   391                           ; 4 bytes @ 0xC
   392     002C                     	ds	1
   393     002D                     ??___flmul:
   394                           
   395                           ; 1 bytes @ 0xD
   396     002D                     	ds	3
   397     0030                     ___flsub@b:
   398                           
   399                           ; 4 bytes @ 0x10
   400     0030                     	ds	2
   401     0032                     ___flmul@sign:
   402                           
   403                           ; 1 bytes @ 0x12
   404     0032                     	ds	1
   405     0033                     ___flmul@aexp:
   406                           
   407                           ; 1 bytes @ 0x13
   408     0033                     	ds	1
   409     0034                     ___flmul@grs:
   410                           
   411                           ; 4 bytes @ 0x14
   412     0034                     	ds	4
   413     0038                     ___flmul@bexp:
   414                           
   415                           ; 1 bytes @ 0x18
   416     0038                     	ds	1
   417     0039                     ___flmul@prod:
   418                           
   419                           ; 4 bytes @ 0x19
   420     0039                     	ds	4
   421     003D                     ___flmul@temp:
   422                           
   423                           ; 2 bytes @ 0x1D
   424     003D                     	ds	2
   425     003F                     ?___fldiv:
   426     003F                     ___fldiv@a:	
   427                           ; 4 bytes @ 0x1F
   428                           
   429                           
   430                           ; 4 bytes @ 0x1F
   431     003F                     	ds	4
   432     0043                     ___fldiv@b:
   433                           
   434                           ; 4 bytes @ 0x23
   435     0043                     	ds	4
   436     0047                     ??___fldiv:
   437                           
   438                           ; 1 bytes @ 0x27
   439     0047                     	ds	5
   440     004C                     ___fldiv@rem:
   441                           
   442                           ; 4 bytes @ 0x2C
   443     004C                     	ds	4
   444     0050                     ___fldiv@sign:
   445                           
   446                           ; 1 bytes @ 0x30
   447     0050                     	ds	1
   448     0051                     ___fldiv@new_exp:
   449                           
   450                           ; 2 bytes @ 0x31
   451     0051                     	ds	2
   452     0053                     ___fldiv@grs:
   453                           
   454                           ; 4 bytes @ 0x33
   455     0053                     	ds	4
   456     0057                     ___fldiv@bexp:
   457                           
   458                           ; 1 bytes @ 0x37
   459     0057                     	ds	1
   460     0058                     ___fldiv@aexp:
   461                           
   462                           ; 1 bytes @ 0x38
   463     0058                     	ds	1
   464     0059                     ?_calcular_temperatura:
   465     0059                     calcular_temperatura@valor:	
   466                           ; 4 bytes @ 0x39
   467                           
   468                           
   469                           ; 4 bytes @ 0x39
   470     0059                     	ds	4
   471     005D                     calcular_temperatura@temperatura:
   472                           
   473                           ; 4 bytes @ 0x3D
   474     005D                     	ds	4
   475     0061                     _calcular_temperatura$1002:
   476                           
   477                           ; 4 bytes @ 0x41
   478     0061                     	ds	4
   479     0065                     ??_main:
   480                           
   481                           ; 1 bytes @ 0x45
   482     0065                     	ds	4
   483                           
   484                           	psect	maintext
   485     0E45                     __pmaintext:	
   486 ;;
   487 ;;Main: autosize = 0, tempsize = 4, incstack = 0, save=0
   488 ;;
   489 ;; *************** function _main *****************
   490 ;; Defined at:
   491 ;;		line 75 in file "main.c"
   492 ;; Parameters:    Size  Location     Type
   493 ;;		None
   494 ;; Auto vars:     Size  Location     Type
   495 ;;  temperatura_    4   12[BANK1 ] float 
   496 ;;  temperatura_    4    8[BANK1 ] float 
   497 ;;  valor_do_sen    4    4[BANK1 ] float 
   498 ;;  temperatura_    4    0[BANK1 ] float 
   499 ;; Return value:  Size  Location     Type
   500 ;;                  1    wreg      void 
   501 ;; Registers used:
   502 ;;		wreg, status,2, status,0, btemp+1, pclath, cstack
   503 ;; Tracked objects:
   504 ;;		On entry : B00/0
   505 ;;		On exit  : 0/0
   506 ;;		Unchanged: 0/0
   507 ;; Data sizes:     COMMON   BANK0   BANK1   BANK3   BANK2
   508 ;;      Params:         0       0       0       0       0
   509 ;;      Locals:         0       0      16       0       0
   510 ;;      Temps:          0       4       0       0       0
   511 ;;      Totals:         0       4      16       0       0
   512 ;;Total ram usage:       20 bytes
   513 ;; Hardware stack levels required when called: 4
   514 ;; This function calls:
   515 ;;		___fladd
   516 ;;		___flge
   517 ;;		___flsub
   518 ;;		___xxtofl
   519 ;;		_aumentar
   520 ;;		_calcular_temperatura
   521 ;;		_desligar_aquecedor
   522 ;;		_diminuir
   523 ;;		_ligar_aquecedor
   524 ;;		_temporizer
   525 ;; This function is called by:
   526 ;;		Startup code after reset
   527 ;; This function uses a non-reentrant model
   528 ;;
   529                           
   530     0E45                     _main:	
   531                           ;psect for function _main
   532                           
   533     0E45                     l2256:	
   534                           ;incstack = 0
   535                           ; Regs used in _main: [wreg+status,2+status,0+btemp+1+pclath+cstack]
   536                           
   537                           
   538                           ;main.c: 78:    INTCONbits.GIE = 1;
   539     0E45  178B               	bsf	11,7	;volatile
   540                           
   541                           ;main.c: 79:    INTCONbits.PEIE = 1;
   542     0E46  170B               	bsf	11,6	;volatile
   543                           
   544                           ;main.c: 80:    PIE1bits.ADIE = 1;
   545     0E47  1683               	bsf	3,5	;RP0=1, select bank1
   546     0E48  1303               	bcf	3,6	;RP1=0, select bank1
   547     0E49  170C               	bsf	12,6	;volatile
   548     0E4A                     l2258:
   549                           
   550                           ;main.c: 82:    TRISB = 0b00000000;
   551     0E4A  0186               	clrf	6	;volatile
   552                           
   553                           ;main.c: 83:    TRISC = 0b00000000;
   554     0E4B  0187               	clrf	7	;volatile
   555     0E4C                     l2260:
   556                           
   557                           ;main.c: 84:    TRISA = 0xFF;
   558     0E4C  30FF               	movlw	255
   559     0E4D  0085               	movwf	5	;volatile
   560     0E4E                     l2262:
   561                           
   562                           ;main.c: 86:    OPTION_REGbits.nRBPU = 0;
   563     0E4E  1381               	bcf	1,7	;volatile
   564     0E4F                     l2264:
   565                           
   566                           ;main.c: 94:    ADCON1bits.PCFG0 = 0;
   567     0E4F  101F               	bcf	31,0	;volatile
   568     0E50                     l2266:
   569                           
   570                           ;main.c: 95:    ADCON1bits.PCFG1 = 1;
   571     0E50  149F               	bsf	31,1	;volatile
   572     0E51                     l2268:
   573                           
   574                           ;main.c: 96:    ADCON1bits.PCFG2 = 1;
   575     0E51  151F               	bsf	31,2	;volatile
   576     0E52                     l2270:
   577                           
   578                           ;main.c: 97:    ADCON1bits.PCFG3 = 1;
   579     0E52  159F               	bsf	31,3	;volatile
   580     0E53                     l2272:
   581                           
   582                           ;main.c: 98:    ADCON0bits.CHS = 0;
   583     0E53  30C7               	movlw	-57
   584     0E54  1283               	bcf	3,5	;RP0=0, select bank0
   585     0E55  1303               	bcf	3,6	;RP1=0, select bank0
   586     0E56  059F               	andwf	31,f	;volatile
   587     0E57                     l2274:
   588                           
   589                           ;main.c: 101:    ADCON0bits.ADCS0 = 0 ;
   590     0E57  131F               	bcf	31,6	;volatile
   591     0E58                     l2276:
   592                           
   593                           ;main.c: 102:    ADCON0bits.ADCS1 = 0 ;
   594     0E58  139F               	bcf	31,7	;volatile
   595     0E59                     l2278:
   596                           
   597                           ;main.c: 104:    ADCON1bits.ADFM = 0 ;
   598     0E59  1683               	bsf	3,5	;RP0=1, select bank1
   599     0E5A  1303               	bcf	3,6	;RP1=0, select bank1
   600     0E5B  139F               	bcf	31,7	;volatile
   601     0E5C                     l2280:
   602                           
   603                           ;main.c: 111:    ADRESL = 0x00;
   604     0E5C  019E               	clrf	30	;volatile
   605     0E5D                     l2282:
   606                           
   607                           ;main.c: 112:    ADRESH = 0x00;
   608     0E5D  1283               	bcf	3,5	;RP0=0, select bank0
   609     0E5E  1303               	bcf	3,6	;RP1=0, select bank0
   610     0E5F  019E               	clrf	30	;volatile
   611     0E60                     l2284:
   612                           
   613                           ;main.c: 114:    ADCON0bits.ADON = 1;
   614     0E60  141F               	bsf	31,0	;volatile
   615     0E61                     l2286:
   616                           
   617                           ;main.c: 117:    PORTCbits.RC3 = 0;
   618     0E61  1187               	bcf	7,3	;volatile
   619     0E62                     l2288:
   620                           
   621                           ;main.c: 118:    PORTB = 0;
   622     0E62  0186               	clrf	6	;volatile
   623     0E63                     l2290:
   624                           
   625                           ;main.c: 120:    ADCON0bits.ADON = 1;
   626     0E63  141F               	bsf	31,0	;volatile
   627     0E64                     l2292:
   628                           
   629                           ;main.c: 123:    ADCON0bits.CHS0 = 0;
   630     0E64  119F               	bcf	31,3	;volatile
   631     0E65                     l2294:
   632                           
   633                           ;main.c: 124:    ADCON0bits.CHS1 = 0;
   634     0E65  121F               	bcf	31,4	;volatile
   635     0E66                     l2296:
   636                           
   637                           ;main.c: 125:    ADCON0bits.CHS2 = 0;
   638     0E66  129F               	bcf	31,5	;volatile
   639     0E67                     l2298:
   640                           
   641                           ;main.c: 141:   PORTC = 0;
   642     0E67  0187               	clrf	7	;volatile
   643     0E68                     l2300:
   644                           
   645                           ;main.c: 142:   PORTB = 0;
   646     0E68  0186               	clrf	6	;volatile
   647     0E69                     l2302:
   648                           
   649                           ;main.c: 144:    TRISBbits.TRISB7 = 0;
   650     0E69  1683               	bsf	3,5	;RP0=1, select bank1
   651     0E6A  1303               	bcf	3,6	;RP1=0, select bank1
   652     0E6B  1386               	bcf	6,7	;volatile
   653     0E6C                     l2304:
   654                           
   655                           ;main.c: 145:   ADCON1bits.PCFG0 = 1;
   656     0E6C  141F               	bsf	31,0	;volatile
   657     0E6D                     l2306:
   658                           
   659                           ;main.c: 146:    ADCON1bits.PCFG1 = 0;
   660     0E6D  109F               	bcf	31,1	;volatile
   661     0E6E                     l2308:
   662                           
   663                           ;main.c: 148:    ADCON0 = 0x81;
   664     0E6E  3081               	movlw	129
   665     0E6F  1283               	bcf	3,5	;RP0=0, select bank0
   666     0E70  1303               	bcf	3,6	;RP1=0, select bank0
   667     0E71  009F               	movwf	31	;volatile
   668     0E72                     l2310:
   669                           
   670                           ;main.c: 149:    ADCON1 = 010000000;
   671     0E72  1683               	bsf	3,5	;RP0=1, select bank1
   672     0E73  1303               	bcf	3,6	;RP1=0, select bank1
   673     0E74  019F               	clrf	31	;volatile
   674     0E75                     l2312:
   675                           
   676                           ;main.c: 151:    ADCON0bits.CHS0 = 0;
   677     0E75  1283               	bcf	3,5	;RP0=0, select bank0
   678     0E76  1303               	bcf	3,6	;RP1=0, select bank0
   679     0E77  119F               	bcf	31,3	;volatile
   680     0E78                     l2314:
   681                           
   682                           ;main.c: 152:     ADCON0bits.CHS1 = 1;
   683     0E78  161F               	bsf	31,4	;volatile
   684     0E79                     l2316:
   685                           
   686                           ;main.c: 155:     float temperatura_do_usuario = 0;
   687     0E79  3000               	movlw	0
   688     0E7A  1683               	bsf	3,5	;RP0=1, select bank1
   689     0E7B  1303               	bcf	3,6	;RP1=0, select bank1
   690     0E7C  00AF               	movwf	(main@temperatura_do_usuario+3)^(0+128)
   691     0E7D  3000               	movlw	0
   692     0E7E  00AE               	movwf	(main@temperatura_do_usuario+2)^(0+128)
   693     0E7F  3000               	movlw	0
   694     0E80  00AD               	movwf	(main@temperatura_do_usuario+1)^(0+128)
   695     0E81  3000               	movlw	0
   696     0E82  00AC               	movwf	main@temperatura_do_usuario^(0+128)
   697     0E83                     l2318:
   698                           
   699                           ;main.c: 156:     float temperatura_requerida;;main.c: 157:     float valor_do_sensor;;m
      +                          ain.c: 158:      float temperatura_do_sensor;;main.c: 159:    _delay((unsigned long)((20
      +                          )*(4000000/4000000.0)));
   700     0E83  3005               	movlw	5
   701     0E84  1283               	bcf	3,5	;RP0=0, select bank0
   702     0E85  1303               	bcf	3,6	;RP1=0, select bank0
   703     0E86  00E5               	movwf	??_main
   704     0E87                     u3377:
   705     0E87  0BE5               	decfsz	??_main,f
   706     0E88  2E87               	goto	u3377
   707     0E89  2E8A               	nop2
   708     0E8A                     l2320:
   709                           
   710                           ;main.c: 164:    {;main.c: 165:         ADCON0bits.GO = 1;
   711     0E8A  1283               	bcf	3,5	;RP0=0, select bank0
   712     0E8B  1303               	bcf	3,6	;RP1=0, select bank0
   713     0E8C  151F               	bsf	31,2	;volatile
   714     0E8D                     l2322:
   715                           
   716                           ;main.c: 175:        valor_do_sensor = ADRESH;
   717     0E8D  081E               	movf	30,w	;volatile
   718     0E8E  00E5               	movwf	??_main
   719     0E8F  01E6               	clrf	??_main+1
   720     0E90  01E7               	clrf	??_main+2
   721     0E91  01E8               	clrf	??_main+3
   722     0E92  0868               	movf	??_main+3,w
   723     0E93  00F5               	movwf	___xxtofl@val+3
   724     0E94  0867               	movf	??_main+2,w
   725     0E95  00F4               	movwf	___xxtofl@val+2
   726     0E96  0866               	movf	??_main+1,w
   727     0E97  00F3               	movwf	___xxtofl@val+1
   728     0E98  0865               	movf	??_main,w
   729     0E99  00F2               	movwf	___xxtofl@val
   730     0E9A  3000               	movlw	0
   731     0E9B  120A  158A  258B  120A  158A  	fcall	___xxtofl
   732     0EA0  0875               	movf	?___xxtofl+3,w
   733     0EA1  1683               	bsf	3,5	;RP0=1, select bank1
   734     0EA2  1303               	bcf	3,6	;RP1=0, select bank1
   735     0EA3  00A7               	movwf	(main@valor_do_sensor+3)^(0+128)
   736     0EA4  0874               	movf	?___xxtofl+2,w
   737     0EA5  00A6               	movwf	(main@valor_do_sensor+2)^(0+128)
   738     0EA6  0873               	movf	?___xxtofl+1,w
   739     0EA7  00A5               	movwf	(main@valor_do_sensor+1)^(0+128)
   740     0EA8  0872               	movf	?___xxtofl,w
   741     0EA9  00A4               	movwf	main@valor_do_sensor^(0+128)
   742     0EAA                     l2324:
   743                           
   744                           ;main.c: 176:        temperatura_do_sensor = calcular_temperatura(valor_do_sensor);
   745     0EAA  0827               	movf	(main@valor_do_sensor+3)^(0+128),w
   746     0EAB  1283               	bcf	3,5	;RP0=0, select bank0
   747     0EAC  1303               	bcf	3,6	;RP1=0, select bank0
   748     0EAD  00DC               	movwf	calcular_temperatura@valor+3
   749     0EAE  1683               	bsf	3,5	;RP0=1, select bank1
   750     0EAF  1303               	bcf	3,6	;RP1=0, select bank1
   751     0EB0  0826               	movf	(main@valor_do_sensor+2)^(0+128),w
   752     0EB1  1283               	bcf	3,5	;RP0=0, select bank0
   753     0EB2  1303               	bcf	3,6	;RP1=0, select bank0
   754     0EB3  00DB               	movwf	calcular_temperatura@valor+2
   755     0EB4  1683               	bsf	3,5	;RP0=1, select bank1
   756     0EB5  1303               	bcf	3,6	;RP1=0, select bank1
   757     0EB6  0825               	movf	(main@valor_do_sensor+1)^(0+128),w
   758     0EB7  1283               	bcf	3,5	;RP0=0, select bank0
   759     0EB8  1303               	bcf	3,6	;RP1=0, select bank0
   760     0EB9  00DA               	movwf	calcular_temperatura@valor+1
   761     0EBA  1683               	bsf	3,5	;RP0=1, select bank1
   762     0EBB  1303               	bcf	3,6	;RP1=0, select bank1
   763     0EBC  0824               	movf	main@valor_do_sensor^(0+128),w
   764     0EBD  1283               	bcf	3,5	;RP0=0, select bank0
   765     0EBE  1303               	bcf	3,6	;RP1=0, select bank0
   766     0EBF  00D9               	movwf	calcular_temperatura@valor
   767     0EC0  120A  118A  2781  120A  158A  	fcall	_calcular_temperatura
   768     0EC5  1283               	bcf	3,5	;RP0=0, select bank0
   769     0EC6  1303               	bcf	3,6	;RP1=0, select bank0
   770     0EC7  085C               	movf	?_calcular_temperatura+3,w
   771     0EC8  1683               	bsf	3,5	;RP0=1, select bank1
   772     0EC9  1303               	bcf	3,6	;RP1=0, select bank1
   773     0ECA  00AB               	movwf	(main@temperatura_do_sensor+3)^(0+128)
   774     0ECB  1283               	bcf	3,5	;RP0=0, select bank0
   775     0ECC  1303               	bcf	3,6	;RP1=0, select bank0
   776     0ECD  085B               	movf	?_calcular_temperatura+2,w
   777     0ECE  1683               	bsf	3,5	;RP0=1, select bank1
   778     0ECF  1303               	bcf	3,6	;RP1=0, select bank1
   779     0ED0  00AA               	movwf	(main@temperatura_do_sensor+2)^(0+128)
   780     0ED1  1283               	bcf	3,5	;RP0=0, select bank0
   781     0ED2  1303               	bcf	3,6	;RP1=0, select bank0
   782     0ED3  085A               	movf	?_calcular_temperatura+1,w
   783     0ED4  1683               	bsf	3,5	;RP0=1, select bank1
   784     0ED5  1303               	bcf	3,6	;RP1=0, select bank1
   785     0ED6  00A9               	movwf	(main@temperatura_do_sensor+1)^(0+128)
   786     0ED7  1283               	bcf	3,5	;RP0=0, select bank0
   787     0ED8  1303               	bcf	3,6	;RP1=0, select bank0
   788     0ED9  0859               	movf	?_calcular_temperatura,w
   789     0EDA  1683               	bsf	3,5	;RP0=1, select bank1
   790     0EDB  1303               	bcf	3,6	;RP1=0, select bank1
   791     0EDC  00A8               	movwf	main@temperatura_do_sensor^(0+128)
   792     0EDD                     l2326:
   793                           
   794                           ;main.c: 184:        if(!PORTDbits.RD0){
   795     0EDD  1283               	bcf	3,5	;RP0=0, select bank0
   796     0EDE  1303               	bcf	3,6	;RP1=0, select bank0
   797     0EDF  1808               	btfsc	8,0	;volatile
   798     0EE0  2EE2               	goto	u3321
   799     0EE1  2EE3               	goto	u3320
   800     0EE2                     u3321:
   801     0EE2  2F09               	goto	l2330
   802     0EE3                     u3320:
   803     0EE3                     l2328:
   804                           
   805                           ;main.c: 185:            aumentar();
   806     0EE3  120A  158A  247A  120A  158A  	fcall	_aumentar
   807                           
   808                           ;main.c: 186:            temperatura_do_usuario++;
   809     0EE8  303F               	movlw	63
   810     0EE9  00F5               	movwf	___fladd@b+3
   811     0EEA  3080               	movlw	128
   812     0EEB  00F4               	movwf	___fladd@b+2
   813     0EEC  3000               	movlw	0
   814     0EED  00F3               	movwf	___fladd@b+1
   815     0EEE  3000               	movlw	0
   816     0EEF  00F2               	movwf	___fladd@b
   817     0EF0  1683               	bsf	3,5	;RP0=1, select bank1
   818     0EF1  1303               	bcf	3,6	;RP1=0, select bank1
   819     0EF2  082F               	movf	(main@temperatura_do_usuario+3)^(0+128),w
   820     0EF3  00F9               	movwf	___fladd@a+3
   821     0EF4  082E               	movf	(main@temperatura_do_usuario+2)^(0+128),w
   822     0EF5  00F8               	movwf	___fladd@a+2
   823     0EF6  082D               	movf	(main@temperatura_do_usuario+1)^(0+128),w
   824     0EF7  00F7               	movwf	___fladd@a+1
   825     0EF8  082C               	movf	main@temperatura_do_usuario^(0+128),w
   826     0EF9  00F6               	movwf	___fladd@a
   827     0EFA  120A  118A  235A  120A  158A  	fcall	___fladd
   828     0EFF  0875               	movf	?___fladd+3,w
   829     0F00  1683               	bsf	3,5	;RP0=1, select bank1
   830     0F01  1303               	bcf	3,6	;RP1=0, select bank1
   831     0F02  00AF               	movwf	(main@temperatura_do_usuario+3)^(0+128)
   832     0F03  0874               	movf	?___fladd+2,w
   833     0F04  00AE               	movwf	(main@temperatura_do_usuario+2)^(0+128)
   834     0F05  0873               	movf	?___fladd+1,w
   835     0F06  00AD               	movwf	(main@temperatura_do_usuario+1)^(0+128)
   836     0F07  0872               	movf	?___fladd,w
   837     0F08  00AC               	movwf	main@temperatura_do_usuario^(0+128)
   838     0F09                     l2330:
   839                           
   840                           ;main.c: 188:        if(!PORTDbits.RD1){
   841     0F09  1283               	bcf	3,5	;RP0=0, select bank0
   842     0F0A  1888               	btfsc	8,1	;volatile
   843     0F0B  2F0D               	goto	u3331
   844     0F0C  2F0E               	goto	u3330
   845     0F0D                     u3331:
   846     0F0D  2F52               	goto	l2336
   847     0F0E                     u3330:
   848     0F0E                     l2332:
   849                           
   850                           ;main.c: 189:            diminuir();
   851     0F0E  120A  118A  27E1  120A  158A  	fcall	_diminuir
   852     0F13                     l2334:
   853                           
   854                           ;main.c: 190:            temperatura_do_usuario--;
   855     0F13  303F               	movlw	63
   856     0F14  1283               	bcf	3,5	;RP0=0, select bank0
   857     0F15  1303               	bcf	3,6	;RP1=0, select bank0
   858     0F16  00AF               	movwf	___flsub@a+3
   859     0F17  3080               	movlw	128
   860     0F18  00AE               	movwf	___flsub@a+2
   861     0F19  3000               	movlw	0
   862     0F1A  00AD               	movwf	___flsub@a+1
   863     0F1B  3000               	movlw	0
   864     0F1C  00AC               	movwf	___flsub@a
   865     0F1D  1683               	bsf	3,5	;RP0=1, select bank1
   866     0F1E  1303               	bcf	3,6	;RP1=0, select bank1
   867     0F1F  082F               	movf	(main@temperatura_do_usuario+3)^(0+128),w
   868     0F20  1283               	bcf	3,5	;RP0=0, select bank0
   869     0F21  1303               	bcf	3,6	;RP1=0, select bank0
   870     0F22  00B3               	movwf	___flsub@b+3
   871     0F23  1683               	bsf	3,5	;RP0=1, select bank1
   872     0F24  1303               	bcf	3,6	;RP1=0, select bank1
   873     0F25  082E               	movf	(main@temperatura_do_usuario+2)^(0+128),w
   874     0F26  1283               	bcf	3,5	;RP0=0, select bank0
   875     0F27  1303               	bcf	3,6	;RP1=0, select bank0
   876     0F28  00B2               	movwf	___flsub@b+2
   877     0F29  1683               	bsf	3,5	;RP0=1, select bank1
   878     0F2A  1303               	bcf	3,6	;RP1=0, select bank1
   879     0F2B  082D               	movf	(main@temperatura_do_usuario+1)^(0+128),w
   880     0F2C  1283               	bcf	3,5	;RP0=0, select bank0
   881     0F2D  1303               	bcf	3,6	;RP1=0, select bank0
   882     0F2E  00B1               	movwf	___flsub@b+1
   883     0F2F  1683               	bsf	3,5	;RP0=1, select bank1
   884     0F30  1303               	bcf	3,6	;RP1=0, select bank1
   885     0F31  082C               	movf	main@temperatura_do_usuario^(0+128),w
   886     0F32  1283               	bcf	3,5	;RP0=0, select bank0
   887     0F33  1303               	bcf	3,6	;RP1=0, select bank0
   888     0F34  00B0               	movwf	___flsub@b
   889     0F35  120A  158A  249A  120A  158A  	fcall	___flsub
   890     0F3A  1283               	bcf	3,5	;RP0=0, select bank0
   891     0F3B  1303               	bcf	3,6	;RP1=0, select bank0
   892     0F3C  082F               	movf	?___flsub+3,w
   893     0F3D  1683               	bsf	3,5	;RP0=1, select bank1
   894     0F3E  1303               	bcf	3,6	;RP1=0, select bank1
   895     0F3F  00AF               	movwf	(main@temperatura_do_usuario+3)^(0+128)
   896     0F40  1283               	bcf	3,5	;RP0=0, select bank0
   897     0F41  1303               	bcf	3,6	;RP1=0, select bank0
   898     0F42  082E               	movf	?___flsub+2,w
   899     0F43  1683               	bsf	3,5	;RP0=1, select bank1
   900     0F44  1303               	bcf	3,6	;RP1=0, select bank1
   901     0F45  00AE               	movwf	(main@temperatura_do_usuario+2)^(0+128)
   902     0F46  1283               	bcf	3,5	;RP0=0, select bank0
   903     0F47  1303               	bcf	3,6	;RP1=0, select bank0
   904     0F48  082D               	movf	?___flsub+1,w
   905     0F49  1683               	bsf	3,5	;RP0=1, select bank1
   906     0F4A  1303               	bcf	3,6	;RP1=0, select bank1
   907     0F4B  00AD               	movwf	(main@temperatura_do_usuario+1)^(0+128)
   908     0F4C  1283               	bcf	3,5	;RP0=0, select bank0
   909     0F4D  1303               	bcf	3,6	;RP1=0, select bank0
   910     0F4E  082C               	movf	?___flsub,w
   911     0F4F  1683               	bsf	3,5	;RP0=1, select bank1
   912     0F50  1303               	bcf	3,6	;RP1=0, select bank1
   913     0F51  00AC               	movwf	main@temperatura_do_usuario^(0+128)
   914     0F52                     l2336:
   915                           
   916                           ;main.c: 192:        if(!PORTDbits.RD2){
   917     0F52  1283               	bcf	3,5	;RP0=0, select bank0
   918     0F53  1908               	btfsc	8,2	;volatile
   919     0F54  2F56               	goto	u3341
   920     0F55  2F57               	goto	u3340
   921     0F56                     u3341:
   922     0F56  2E8A               	goto	l2320
   923     0F57                     u3340:
   924     0F57                     l2338:
   925                           
   926                           ;main.c: 193:            temperatura_requerida = temperatura_do_usuario;
   927     0F57  1683               	bsf	3,5	;RP0=1, select bank1
   928     0F58  1303               	bcf	3,6	;RP1=0, select bank1
   929     0F59  082F               	movf	(main@temperatura_do_usuario+3)^(0+128),w
   930     0F5A  00A3               	movwf	(main@temperatura_requerida+3)^(0+128)
   931     0F5B  082E               	movf	(main@temperatura_do_usuario+2)^(0+128),w
   932     0F5C  00A2               	movwf	(main@temperatura_requerida+2)^(0+128)
   933     0F5D  082D               	movf	(main@temperatura_do_usuario+1)^(0+128),w
   934     0F5E  00A1               	movwf	(main@temperatura_requerida+1)^(0+128)
   935     0F5F  082C               	movf	main@temperatura_do_usuario^(0+128),w
   936     0F60  00A0               	movwf	main@temperatura_requerida^(0+128)
   937     0F61                     l2340:
   938                           
   939                           ;main.c: 195:            if(temperatura_do_sensor < temperatura_requerida){
   940     0F61  082B               	movf	(main@temperatura_do_sensor+3)^(0+128),w
   941     0F62  00F5               	movwf	___flge@ff1+3
   942     0F63  082A               	movf	(main@temperatura_do_sensor+2)^(0+128),w
   943     0F64  00F4               	movwf	___flge@ff1+2
   944     0F65  0829               	movf	(main@temperatura_do_sensor+1)^(0+128),w
   945     0F66  00F3               	movwf	___flge@ff1+1
   946     0F67  0828               	movf	main@temperatura_do_sensor^(0+128),w
   947     0F68  00F2               	movwf	___flge@ff1
   948     0F69  0823               	movf	(main@temperatura_requerida+3)^(0+128),w
   949     0F6A  00F9               	movwf	___flge@ff2+3
   950     0F6B  0822               	movf	(main@temperatura_requerida+2)^(0+128),w
   951     0F6C  00F8               	movwf	___flge@ff2+2
   952     0F6D  0821               	movf	(main@temperatura_requerida+1)^(0+128),w
   953     0F6E  00F7               	movwf	___flge@ff2+1
   954     0F6F  0820               	movf	main@temperatura_requerida^(0+128),w
   955     0F70  00F6               	movwf	___flge@ff2
   956     0F71  120A  158A  24E7  120A  158A  	fcall	___flge
   957     0F76  1803               	btfsc	3,0
   958     0F77  2F79               	goto	u3351
   959     0F78  2F7A               	goto	u3350
   960     0F79                     u3351:
   961     0F79  2FF7               	goto	l2356
   962     0F7A                     u3350:
   963     0F7A  2FDC               	goto	l2354
   964     0F7B                     l2344:
   965                           
   966                           ;main.c: 198:                ligar_aquecedor();
   967     0F7B  120A  158A  2454  120A  158A  	fcall	_ligar_aquecedor
   968     0F80                     l2346:
   969                           
   970                           ;main.c: 199:                temporizer();
   971     0F80  120A  158A  2458  120A  158A  	fcall	_temporizer
   972     0F85                     l2348:
   973                           
   974                           ;main.c: 202:                valor_do_sensor = ADRESH;
   975     0F85  1283               	bcf	3,5	;RP0=0, select bank0
   976     0F86  1303               	bcf	3,6	;RP1=0, select bank0
   977     0F87  081E               	movf	30,w	;volatile
   978     0F88  00E5               	movwf	??_main
   979     0F89  01E6               	clrf	??_main+1
   980     0F8A  01E7               	clrf	??_main+2
   981     0F8B  01E8               	clrf	??_main+3
   982     0F8C  0868               	movf	??_main+3,w
   983     0F8D  00F5               	movwf	___xxtofl@val+3
   984     0F8E  0867               	movf	??_main+2,w
   985     0F8F  00F4               	movwf	___xxtofl@val+2
   986     0F90  0866               	movf	??_main+1,w
   987     0F91  00F3               	movwf	___xxtofl@val+1
   988     0F92  0865               	movf	??_main,w
   989     0F93  00F2               	movwf	___xxtofl@val
   990     0F94  3000               	movlw	0
   991     0F95  120A  158A  258B  120A  158A  	fcall	___xxtofl
   992     0F9A  0875               	movf	?___xxtofl+3,w
   993     0F9B  1683               	bsf	3,5	;RP0=1, select bank1
   994     0F9C  1303               	bcf	3,6	;RP1=0, select bank1
   995     0F9D  00A7               	movwf	(main@valor_do_sensor+3)^(0+128)
   996     0F9E  0874               	movf	?___xxtofl+2,w
   997     0F9F  00A6               	movwf	(main@valor_do_sensor+2)^(0+128)
   998     0FA0  0873               	movf	?___xxtofl+1,w
   999     0FA1  00A5               	movwf	(main@valor_do_sensor+1)^(0+128)
  1000     0FA2  0872               	movf	?___xxtofl,w
  1001     0FA3  00A4               	movwf	main@valor_do_sensor^(0+128)
  1002     0FA4                     l2350:
  1003                           
  1004                           ;main.c: 203:                temperatura_do_sensor = calcular_temperatura(valor_do_senso
      +                          r);
  1005     0FA4  0827               	movf	(main@valor_do_sensor+3)^(0+128),w
  1006     0FA5  1283               	bcf	3,5	;RP0=0, select bank0
  1007     0FA6  1303               	bcf	3,6	;RP1=0, select bank0
  1008     0FA7  00DC               	movwf	calcular_temperatura@valor+3
  1009     0FA8  1683               	bsf	3,5	;RP0=1, select bank1
  1010     0FA9  1303               	bcf	3,6	;RP1=0, select bank1
  1011     0FAA  0826               	movf	(main@valor_do_sensor+2)^(0+128),w
  1012     0FAB  1283               	bcf	3,5	;RP0=0, select bank0
  1013     0FAC  1303               	bcf	3,6	;RP1=0, select bank0
  1014     0FAD  00DB               	movwf	calcular_temperatura@valor+2
  1015     0FAE  1683               	bsf	3,5	;RP0=1, select bank1
  1016     0FAF  1303               	bcf	3,6	;RP1=0, select bank1
  1017     0FB0  0825               	movf	(main@valor_do_sensor+1)^(0+128),w
  1018     0FB1  1283               	bcf	3,5	;RP0=0, select bank0
  1019     0FB2  1303               	bcf	3,6	;RP1=0, select bank0
  1020     0FB3  00DA               	movwf	calcular_temperatura@valor+1
  1021     0FB4  1683               	bsf	3,5	;RP0=1, select bank1
  1022     0FB5  1303               	bcf	3,6	;RP1=0, select bank1
  1023     0FB6  0824               	movf	main@valor_do_sensor^(0+128),w
  1024     0FB7  1283               	bcf	3,5	;RP0=0, select bank0
  1025     0FB8  1303               	bcf	3,6	;RP1=0, select bank0
  1026     0FB9  00D9               	movwf	calcular_temperatura@valor
  1027     0FBA  120A  118A  2781  120A  158A  	fcall	_calcular_temperatura
  1028     0FBF  1283               	bcf	3,5	;RP0=0, select bank0
  1029     0FC0  1303               	bcf	3,6	;RP1=0, select bank0
  1030     0FC1  085C               	movf	?_calcular_temperatura+3,w
  1031     0FC2  1683               	bsf	3,5	;RP0=1, select bank1
  1032     0FC3  1303               	bcf	3,6	;RP1=0, select bank1
  1033     0FC4  00AB               	movwf	(main@temperatura_do_sensor+3)^(0+128)
  1034     0FC5  1283               	bcf	3,5	;RP0=0, select bank0
  1035     0FC6  1303               	bcf	3,6	;RP1=0, select bank0
  1036     0FC7  085B               	movf	?_calcular_temperatura+2,w
  1037     0FC8  1683               	bsf	3,5	;RP0=1, select bank1
  1038     0FC9  1303               	bcf	3,6	;RP1=0, select bank1
  1039     0FCA  00AA               	movwf	(main@temperatura_do_sensor+2)^(0+128)
  1040     0FCB  1283               	bcf	3,5	;RP0=0, select bank0
  1041     0FCC  1303               	bcf	3,6	;RP1=0, select bank0
  1042     0FCD  085A               	movf	?_calcular_temperatura+1,w
  1043     0FCE  1683               	bsf	3,5	;RP0=1, select bank1
  1044     0FCF  1303               	bcf	3,6	;RP1=0, select bank1
  1045     0FD0  00A9               	movwf	(main@temperatura_do_sensor+1)^(0+128)
  1046     0FD1  1283               	bcf	3,5	;RP0=0, select bank0
  1047     0FD2  1303               	bcf	3,6	;RP1=0, select bank0
  1048     0FD3  0859               	movf	?_calcular_temperatura,w
  1049     0FD4  1683               	bsf	3,5	;RP0=1, select bank1
  1050     0FD5  1303               	bcf	3,6	;RP1=0, select bank1
  1051     0FD6  00A8               	movwf	main@temperatura_do_sensor^(0+128)
  1052     0FD7                     l2352:
  1053                           
  1054                           ;main.c: 205:                temporizer();
  1055     0FD7  120A  158A  2458  120A  158A  	fcall	_temporizer
  1056     0FDC                     l2354:
  1057                           
  1058                           ;main.c: 196:                while(temperatura_do_sensor < temperatura_requerida){
  1059     0FDC  1683               	bsf	3,5	;RP0=1, select bank1
  1060     0FDD  1303               	bcf	3,6	;RP1=0, select bank1
  1061     0FDE  082B               	movf	(main@temperatura_do_sensor+3)^(0+128),w
  1062     0FDF  00F5               	movwf	___flge@ff1+3
  1063     0FE0  082A               	movf	(main@temperatura_do_sensor+2)^(0+128),w
  1064     0FE1  00F4               	movwf	___flge@ff1+2
  1065     0FE2  0829               	movf	(main@temperatura_do_sensor+1)^(0+128),w
  1066     0FE3  00F3               	movwf	___flge@ff1+1
  1067     0FE4  0828               	movf	main@temperatura_do_sensor^(0+128),w
  1068     0FE5  00F2               	movwf	___flge@ff1
  1069     0FE6  0823               	movf	(main@temperatura_requerida+3)^(0+128),w
  1070     0FE7  00F9               	movwf	___flge@ff2+3
  1071     0FE8  0822               	movf	(main@temperatura_requerida+2)^(0+128),w
  1072     0FE9  00F8               	movwf	___flge@ff2+2
  1073     0FEA  0821               	movf	(main@temperatura_requerida+1)^(0+128),w
  1074     0FEB  00F7               	movwf	___flge@ff2+1
  1075     0FEC  0820               	movf	main@temperatura_requerida^(0+128),w
  1076     0FED  00F6               	movwf	___flge@ff2
  1077     0FEE  120A  158A  24E7  120A  158A  	fcall	___flge
  1078     0FF3  1C03               	btfss	3,0
  1079     0FF4  2FF6               	goto	u3361
  1080     0FF5  2FF7               	goto	u3360
  1081     0FF6                     u3361:
  1082     0FF6  2F7B               	goto	l2344
  1083     0FF7                     u3360:
  1084     0FF7                     l2356:
  1085                           
  1086                           ;main.c: 209:                desligar_aquecedor();
  1087     0FF7  120A  158A  2450  120A  158A  	fcall	_desligar_aquecedor
  1088                           
  1089                           ;main.c: 211:            }
  1090     0FFC  2E8A               	goto	l2320
  1091     0FFD  120A  118A  280C   	ljmp	start
  1092     1000                     __end_of_main:
  1093                           
  1094                           	psect	text1
  1095     0C54                     __ptext1:	
  1096 ;; *************** function _ligar_aquecedor *****************
  1097 ;; Defined at:
  1098 ;;		line 310 in file "main.c"
  1099 ;; Parameters:    Size  Location     Type
  1100 ;;		None
  1101 ;; Auto vars:     Size  Location     Type
  1102 ;;		None
  1103 ;; Return value:  Size  Location     Type
  1104 ;;                  1    wreg      void 
  1105 ;; Registers used:
  1106 ;;		None
  1107 ;; Tracked objects:
  1108 ;;		On entry : 0/0
  1109 ;;		On exit  : 0/0
  1110 ;;		Unchanged: 0/0
  1111 ;; Data sizes:     COMMON   BANK0   BANK1   BANK3   BANK2
  1112 ;;      Params:         0       0       0       0       0
  1113 ;;      Locals:         0       0       0       0       0
  1114 ;;      Temps:          0       0       0       0       0
  1115 ;;      Totals:         0       0       0       0       0
  1116 ;;Total ram usage:        0 bytes
  1117 ;; Hardware stack levels used: 1
  1118 ;; Hardware stack levels required when called: 1
  1119 ;; This function calls:
  1120 ;;		Nothing
  1121 ;; This function is called by:
  1122 ;;		_main
  1123 ;; This function uses a non-reentrant model
  1124 ;;
  1125                           
  1126     0C54                     _ligar_aquecedor:	
  1127                           ;psect for function _ligar_aquecedor
  1128                           
  1129     0C54                     l1912:	
  1130                           ;incstack = 0
  1131                           ; Regs used in _ligar_aquecedor: []
  1132                           
  1133                           
  1134                           ;main.c: 312:     PORTBbits.RB7 = 1;
  1135     0C54  1283               	bcf	3,5	;RP0=0, select bank0
  1136     0C55  1303               	bcf	3,6	;RP1=0, select bank0
  1137     0C56  1786               	bsf	6,7	;volatile
  1138     0C57                     l99:
  1139     0C57  0008               	return
  1140     0C58                     __end_of_ligar_aquecedor:
  1141                           
  1142                           	psect	text2
  1143     07E1                     __ptext2:	
  1144 ;; *************** function _diminuir *****************
  1145 ;; Defined at:
  1146 ;;		line 284 in file "main.c"
  1147 ;; Parameters:    Size  Location     Type
  1148 ;;		None
  1149 ;; Auto vars:     Size  Location     Type
  1150 ;;		None
  1151 ;; Return value:  Size  Location     Type
  1152 ;;                  1    wreg      void 
  1153 ;; Registers used:
  1154 ;;		wreg, status,2, status,0, pclath, cstack
  1155 ;; Tracked objects:
  1156 ;;		On entry : 0/0
  1157 ;;		On exit  : 0/0
  1158 ;;		Unchanged: 0/0
  1159 ;; Data sizes:     COMMON   BANK0   BANK1   BANK3   BANK2
  1160 ;;      Params:         0       0       0       0       0
  1161 ;;      Locals:         0       0       0       0       0
  1162 ;;      Temps:          0       0       0       0       0
  1163 ;;      Totals:         0       0       0       0       0
  1164 ;;Total ram usage:        0 bytes
  1165 ;; Hardware stack levels used: 1
  1166 ;; Hardware stack levels required when called: 2
  1167 ;; This function calls:
  1168 ;;		_temporizer
  1169 ;; This function is called by:
  1170 ;;		_main
  1171 ;; This function uses a non-reentrant model
  1172 ;;
  1173                           
  1174     07E1                     _diminuir:	
  1175                           ;psect for function _diminuir
  1176                           
  1177     07E1                     l1898:	
  1178                           ;incstack = 0
  1179                           ; Regs used in _diminuir: [wreg+status,2+status,0+pclath+cstack]
  1180                           
  1181                           
  1182                           ;main.c: 285:     if(PORTC == 0) {
  1183     07E1  1283               	bcf	3,5	;RP0=0, select bank0
  1184     07E2  1303               	bcf	3,6	;RP1=0, select bank0
  1185     07E3  0807               	movf	7,w	;volatile
  1186     07E4  1D03               	btfss	3,2
  1187     07E5  2FE7               	goto	u2641
  1188     07E6  2FE8               	goto	u2640
  1189     07E7                     u2641:
  1190     07E7  2FF5               	goto	l1908
  1191     07E8                     u2640:
  1192     07E8                     l1900:
  1193                           
  1194                           ;main.c: 286:     PORTC = 9;
  1195     07E8  3009               	movlw	9
  1196     07E9  0087               	movwf	7	;volatile
  1197     07EA                     l1902:
  1198                           
  1199                           ;main.c: 287:     if(PORTB == 0) {
  1200     07EA  0806               	movf	6,w	;volatile
  1201     07EB  1D03               	btfss	3,2
  1202     07EC  2FEE               	goto	u2651
  1203     07ED  2FEF               	goto	u2650
  1204     07EE                     u2651:
  1205     07EE  2FF2               	goto	l1906
  1206     07EF                     u2650:
  1207     07EF                     l1904:
  1208                           
  1209                           ;main.c: 288:       PORTB = 9;
  1210     07EF  3009               	movlw	9
  1211     07F0  0086               	movwf	6	;volatile
  1212                           
  1213                           ;main.c: 289:     }
  1214     07F1  2FF7               	goto	l1910
  1215     07F2                     l1906:
  1216                           
  1217                           ;main.c: 291:       PORTB--;
  1218     07F2  3001               	movlw	1
  1219     07F3  0286               	subwf	6,f	;volatile
  1220     07F4  2FF7               	goto	l1910
  1221     07F5                     l1908:
  1222                           
  1223                           ;main.c: 295:     PORTC--;
  1224     07F5  3001               	movlw	1
  1225     07F6  0287               	subwf	7,f	;volatile
  1226     07F7                     l1910:
  1227                           
  1228                           ;main.c: 298:     temporizer();
  1229     07F7  120A  158A  2458  120A  118A  	fcall	_temporizer
  1230     07FC                     l93:
  1231     07FC  0008               	return
  1232     07FD                     __end_of_diminuir:
  1233                           
  1234                           	psect	text3
  1235     0C50                     __ptext3:	
  1236 ;; *************** function _desligar_aquecedor *****************
  1237 ;; Defined at:
  1238 ;;		line 315 in file "main.c"
  1239 ;; Parameters:    Size  Location     Type
  1240 ;;		None
  1241 ;; Auto vars:     Size  Location     Type
  1242 ;;		None
  1243 ;; Return value:  Size  Location     Type
  1244 ;;                  1    wreg      void 
  1245 ;; Registers used:
  1246 ;;		None
  1247 ;; Tracked objects:
  1248 ;;		On entry : 0/0
  1249 ;;		On exit  : 0/0
  1250 ;;		Unchanged: 0/0
  1251 ;; Data sizes:     COMMON   BANK0   BANK1   BANK3   BANK2
  1252 ;;      Params:         0       0       0       0       0
  1253 ;;      Locals:         0       0       0       0       0
  1254 ;;      Temps:          0       0       0       0       0
  1255 ;;      Totals:         0       0       0       0       0
  1256 ;;Total ram usage:        0 bytes
  1257 ;; Hardware stack levels used: 1
  1258 ;; Hardware stack levels required when called: 1
  1259 ;; This function calls:
  1260 ;;		Nothing
  1261 ;; This function is called by:
  1262 ;;		_main
  1263 ;; This function uses a non-reentrant model
  1264 ;;
  1265                           
  1266     0C50                     _desligar_aquecedor:	
  1267                           ;psect for function _desligar_aquecedor
  1268                           
  1269     0C50                     l1914:	
  1270                           ;incstack = 0
  1271                           ; Regs used in _desligar_aquecedor: []
  1272                           
  1273                           
  1274                           ;main.c: 317:   PORTBbits.RB7 = 0;
  1275     0C50  1283               	bcf	3,5	;RP0=0, select bank0
  1276     0C51  1303               	bcf	3,6	;RP1=0, select bank0
  1277     0C52  1386               	bcf	6,7	;volatile
  1278     0C53                     l102:
  1279     0C53  0008               	return
  1280     0C54                     __end_of_desligar_aquecedor:
  1281                           
  1282                           	psect	text4
  1283     0781                     __ptext4:	
  1284 ;; *************** function _calcular_temperatura *****************
  1285 ;; Defined at:
  1286 ;;		line 228 in file "main.c"
  1287 ;; Parameters:    Size  Location     Type
  1288 ;;  valor           4   57[BANK0 ] float 
  1289 ;; Auto vars:     Size  Location     Type
  1290 ;;  temperatura     4   61[BANK0 ] float 
  1291 ;; Return value:  Size  Location     Type
  1292 ;;                  4   57[BANK0 ] float 
  1293 ;; Registers used:
  1294 ;;		wreg, status,2, status,0, btemp+1, pclath, cstack
  1295 ;; Tracked objects:
  1296 ;;		On entry : 0/0
  1297 ;;		On exit  : 0/0
  1298 ;;		Unchanged: 0/0
  1299 ;; Data sizes:     COMMON   BANK0   BANK1   BANK3   BANK2
  1300 ;;      Params:         0       4       0       0       0
  1301 ;;      Locals:         0       8       0       0       0
  1302 ;;      Temps:          0       0       0       0       0
  1303 ;;      Totals:         0      12       0       0       0
  1304 ;;Total ram usage:       12 bytes
  1305 ;; Hardware stack levels used: 1
  1306 ;; Hardware stack levels required when called: 3
  1307 ;; This function calls:
  1308 ;;		___fldiv
  1309 ;;		___flmul
  1310 ;; This function is called by:
  1311 ;;		_main
  1312 ;; This function uses a non-reentrant model
  1313 ;;
  1314                           
  1315     0781                     _calcular_temperatura:	
  1316                           ;psect for function _calcular_temperatura
  1317                           
  1318     0781                     l2250:	
  1319                           ;incstack = 0
  1320                           ; Regs used in _calcular_temperatura: [wreg+status,2+status,0+btemp+1+pclath+cstack]
  1321                           
  1322                           
  1323                           ;main.c: 229:     float temperatura;;main.c: 230:     temperatura = (valor * 5 * 100) / 
      +                          1023;
  1324     0781  3040               	movlw	64
  1325     0782  1283               	bcf	3,5	;RP0=0, select bank0
  1326     0783  1303               	bcf	3,6	;RP1=0, select bank0
  1327     0784  00A8               	movwf	___flmul@b+3
  1328     0785  30A0               	movlw	160
  1329     0786  00A7               	movwf	___flmul@b+2
  1330     0787  3000               	movlw	0
  1331     0788  00A6               	movwf	___flmul@b+1
  1332     0789  3000               	movlw	0
  1333     078A  00A5               	movwf	___flmul@b
  1334     078B  085C               	movf	calcular_temperatura@valor+3,w
  1335     078C  00AC               	movwf	___flmul@a+3
  1336     078D  085B               	movf	calcular_temperatura@valor+2,w
  1337     078E  00AB               	movwf	___flmul@a+2
  1338     078F  085A               	movf	calcular_temperatura@valor+1,w
  1339     0790  00AA               	movwf	___flmul@a+1
  1340     0791  0859               	movf	calcular_temperatura@valor,w
  1341     0792  00A9               	movwf	___flmul@a
  1342     0793  120A  118A  2015  120A  118A  	fcall	___flmul
  1343     0798  1283               	bcf	3,5	;RP0=0, select bank0
  1344     0799  1303               	bcf	3,6	;RP1=0, select bank0
  1345     079A  0828               	movf	?___flmul+3,w
  1346     079B  00E4               	movwf	_calcular_temperatura$1002+3
  1347     079C  0827               	movf	?___flmul+2,w
  1348     079D  00E3               	movwf	_calcular_temperatura$1002+2
  1349     079E  0826               	movf	?___flmul+1,w
  1350     079F  00E2               	movwf	_calcular_temperatura$1002+1
  1351     07A0  0825               	movf	?___flmul,w
  1352     07A1  00E1               	movwf	_calcular_temperatura$1002
  1353                           
  1354                           ;main.c: 229:     float temperatura;;main.c: 230:     temperatura = (valor * 5 * 100) / 
      +                          1023;
  1355     07A2  3044               	movlw	68
  1356     07A3  00C2               	movwf	___fldiv@a+3
  1357     07A4  307F               	movlw	127
  1358     07A5  00C1               	movwf	___fldiv@a+2
  1359     07A6  30C0               	movlw	192
  1360     07A7  00C0               	movwf	___fldiv@a+1
  1361     07A8  3000               	movlw	0
  1362     07A9  00BF               	movwf	___fldiv@a
  1363     07AA  3042               	movlw	66
  1364     07AB  00A8               	movwf	___flmul@b+3
  1365     07AC  30C8               	movlw	200
  1366     07AD  00A7               	movwf	___flmul@b+2
  1367     07AE  3000               	movlw	0
  1368     07AF  00A6               	movwf	___flmul@b+1
  1369     07B0  3000               	movlw	0
  1370     07B1  00A5               	movwf	___flmul@b
  1371     07B2  0864               	movf	_calcular_temperatura$1002+3,w
  1372     07B3  00AC               	movwf	___flmul@a+3
  1373     07B4  0863               	movf	_calcular_temperatura$1002+2,w
  1374     07B5  00AB               	movwf	___flmul@a+2
  1375     07B6  0862               	movf	_calcular_temperatura$1002+1,w
  1376     07B7  00AA               	movwf	___flmul@a+1
  1377     07B8  0861               	movf	_calcular_temperatura$1002,w
  1378     07B9  00A9               	movwf	___flmul@a
  1379     07BA  120A  118A  2015  120A  118A  	fcall	___flmul
  1380     07BF  1283               	bcf	3,5	;RP0=0, select bank0
  1381     07C0  1303               	bcf	3,6	;RP1=0, select bank0
  1382     07C1  0828               	movf	?___flmul+3,w
  1383     07C2  00C6               	movwf	___fldiv@b+3
  1384     07C3  0827               	movf	?___flmul+2,w
  1385     07C4  00C5               	movwf	___fldiv@b+2
  1386     07C5  0826               	movf	?___flmul+1,w
  1387     07C6  00C4               	movwf	___fldiv@b+1
  1388     07C7  0825               	movf	?___flmul,w
  1389     07C8  00C3               	movwf	___fldiv@b
  1390     07C9  120A  118A  25B2  120A  118A  	fcall	___fldiv
  1391     07CE  1283               	bcf	3,5	;RP0=0, select bank0
  1392     07CF  1303               	bcf	3,6	;RP1=0, select bank0
  1393     07D0  0842               	movf	?___fldiv+3,w
  1394     07D1  00E0               	movwf	calcular_temperatura@temperatura+3
  1395     07D2  0841               	movf	?___fldiv+2,w
  1396     07D3  00DF               	movwf	calcular_temperatura@temperatura+2
  1397     07D4  0840               	movf	?___fldiv+1,w
  1398     07D5  00DE               	movwf	calcular_temperatura@temperatura+1
  1399     07D6  083F               	movf	?___fldiv,w
  1400     07D7  00DD               	movwf	calcular_temperatura@temperatura
  1401     07D8                     l2252:
  1402                           
  1403                           ;main.c: 231:     return temperatura;
  1404     07D8  0860               	movf	calcular_temperatura@temperatura+3,w
  1405     07D9  00DC               	movwf	?_calcular_temperatura+3
  1406     07DA  085F               	movf	calcular_temperatura@temperatura+2,w
  1407     07DB  00DB               	movwf	?_calcular_temperatura+2
  1408     07DC  085E               	movf	calcular_temperatura@temperatura+1,w
  1409     07DD  00DA               	movwf	?_calcular_temperatura+1
  1410     07DE  085D               	movf	calcular_temperatura@temperatura,w
  1411     07DF  00D9               	movwf	?_calcular_temperatura
  1412     07E0                     l79:
  1413     07E0  0008               	return
  1414     07E1                     __end_of_calcular_temperatura:
  1415                           
  1416                           	psect	text5
  1417     0015                     __ptext5:	
  1418 ;; *************** function ___flmul *****************
  1419 ;; Defined at:
  1420 ;;		line 8 in file "C:\Program Files\Microchip\xc8\v2.45\pic\sources\c99\common\sprcmul.c"
  1421 ;; Parameters:    Size  Location     Type
  1422 ;;  b               4    5[BANK0 ] float 
  1423 ;;  a               4    9[BANK0 ] float 
  1424 ;; Auto vars:     Size  Location     Type
  1425 ;;  prod            4   25[BANK0 ] struct .
  1426 ;;  grs             4   20[BANK0 ] unsigned long 
  1427 ;;  temp            2   29[BANK0 ] struct .
  1428 ;;  bexp            1   24[BANK0 ] unsigned char 
  1429 ;;  aexp            1   19[BANK0 ] unsigned char 
  1430 ;;  sign            1   18[BANK0 ] unsigned char 
  1431 ;; Return value:  Size  Location     Type
  1432 ;;                  4    5[BANK0 ] unsigned char 
  1433 ;; Registers used:
  1434 ;;		wreg, status,2, status,0, btemp+1, pclath, cstack
  1435 ;; Tracked objects:
  1436 ;;		On entry : 0/0
  1437 ;;		On exit  : 0/0
  1438 ;;		Unchanged: 0/0
  1439 ;; Data sizes:     COMMON   BANK0   BANK1   BANK3   BANK2
  1440 ;;      Params:         0       8       0       0       0
  1441 ;;      Locals:         0      13       0       0       0
  1442 ;;      Temps:          0       5       0       0       0
  1443 ;;      Totals:         0      26       0       0       0
  1444 ;;Total ram usage:       26 bytes
  1445 ;; Hardware stack levels used: 1
  1446 ;; Hardware stack levels required when called: 2
  1447 ;; This function calls:
  1448 ;;		__Umul8_16
  1449 ;; This function is called by:
  1450 ;;		_calcular_temperatura
  1451 ;; This function uses a non-reentrant model
  1452 ;;
  1453                           
  1454     0015                     ___flmul:	
  1455                           ;psect for function ___flmul
  1456                           
  1457     0015                     l2108:	
  1458                           ;incstack = 0
  1459                           ; Regs used in ___flmul: [wreg+status,2+status,0+btemp+1+pclath+cstack]
  1460                           
  1461     0015  1283               	bcf	3,5	;RP0=0, select bank0
  1462     0016  1303               	bcf	3,6	;RP1=0, select bank0
  1463     0017  0828               	movf	___flmul@b+3,w
  1464     0018  3980               	andlw	128
  1465     0019  00B2               	movwf	___flmul@sign
  1466     001A                     l2110:
  1467     001A  0828               	movf	___flmul@b+3,w
  1468     001B  00AD               	movwf	??___flmul
  1469     001C  072D               	addwf	??___flmul,w
  1470     001D  00B8               	movwf	___flmul@bexp
  1471     001E                     l2112:
  1472     001E  1FA7               	btfss	___flmul@b+2,7
  1473     001F  2821               	goto	u2951
  1474     0020  2822               	goto	u2950
  1475     0021                     u2951:
  1476     0021  2823               	goto	l2116
  1477     0022                     u2950:
  1478     0022                     l2114:
  1479     0022  1438               	bsf	___flmul@bexp,0
  1480     0023                     l2116:
  1481     0023  0838               	movf	___flmul@bexp,w
  1482     0024  1903               	btfsc	3,2
  1483     0025  2827               	goto	u2961
  1484     0026  2828               	goto	u2960
  1485     0027                     u2961:
  1486     0027  2837               	goto	l2124
  1487     0028                     u2960:
  1488     0028                     l2118:
  1489     0028  0A38               	incf	___flmul@bexp,w
  1490     0029  1D03               	btfss	3,2
  1491     002A  282C               	goto	u2971
  1492     002B  282D               	goto	u2970
  1493     002C                     u2971:
  1494     002C  2835               	goto	l2122
  1495     002D                     u2970:
  1496     002D                     l2120:
  1497     002D  3000               	movlw	0
  1498     002E  00A8               	movwf	___flmul@b+3
  1499     002F  3000               	movlw	0
  1500     0030  00A7               	movwf	___flmul@b+2
  1501     0031  3000               	movlw	0
  1502     0032  00A6               	movwf	___flmul@b+1
  1503     0033  3000               	movlw	0
  1504     0034  00A5               	movwf	___flmul@b
  1505     0035                     l2122:
  1506     0035  17A7               	bsf	___flmul@b+2,7
  1507     0036  283F               	goto	l2126
  1508     0037                     l2124:
  1509     0037  3000               	movlw	0
  1510     0038  00A8               	movwf	___flmul@b+3
  1511     0039  3000               	movlw	0
  1512     003A  00A7               	movwf	___flmul@b+2
  1513     003B  3000               	movlw	0
  1514     003C  00A6               	movwf	___flmul@b+1
  1515     003D  3000               	movlw	0
  1516     003E  00A5               	movwf	___flmul@b
  1517     003F                     l2126:
  1518     003F  082C               	movf	___flmul@a+3,w
  1519     0040  3980               	andlw	128
  1520     0041  00FF               	movwf	btemp+1
  1521     0042  087F               	movf	btemp+1,w
  1522     0043  06B2               	xorwf	___flmul@sign,f
  1523     0044                     l2128:
  1524     0044  082C               	movf	___flmul@a+3,w
  1525     0045  00AD               	movwf	??___flmul
  1526     0046  072D               	addwf	??___flmul,w
  1527     0047  00B3               	movwf	___flmul@aexp
  1528     0048                     l2130:
  1529     0048  1FAB               	btfss	___flmul@a+2,7
  1530     0049  284B               	goto	u2981
  1531     004A  284C               	goto	u2980
  1532     004B                     u2981:
  1533     004B  284D               	goto	l2134
  1534     004C                     u2980:
  1535     004C                     l2132:
  1536     004C  1433               	bsf	___flmul@aexp,0
  1537     004D                     l2134:
  1538     004D  0833               	movf	___flmul@aexp,w
  1539     004E  1903               	btfsc	3,2
  1540     004F  2851               	goto	u2991
  1541     0050  2852               	goto	u2990
  1542     0051                     u2991:
  1543     0051  2861               	goto	l2142
  1544     0052                     u2990:
  1545     0052                     l2136:
  1546     0052  0A33               	incf	___flmul@aexp,w
  1547     0053  1D03               	btfss	3,2
  1548     0054  2856               	goto	u3001
  1549     0055  2857               	goto	u3000
  1550     0056                     u3001:
  1551     0056  285F               	goto	l2140
  1552     0057                     u3000:
  1553     0057                     l2138:
  1554     0057  3000               	movlw	0
  1555     0058  00AC               	movwf	___flmul@a+3
  1556     0059  3000               	movlw	0
  1557     005A  00AB               	movwf	___flmul@a+2
  1558     005B  3000               	movlw	0
  1559     005C  00AA               	movwf	___flmul@a+1
  1560     005D  3000               	movlw	0
  1561     005E  00A9               	movwf	___flmul@a
  1562     005F                     l2140:
  1563     005F  17AB               	bsf	___flmul@a+2,7
  1564     0060  2869               	goto	l2144
  1565     0061                     l2142:
  1566     0061  3000               	movlw	0
  1567     0062  00AC               	movwf	___flmul@a+3
  1568     0063  3000               	movlw	0
  1569     0064  00AB               	movwf	___flmul@a+2
  1570     0065  3000               	movlw	0
  1571     0066  00AA               	movwf	___flmul@a+1
  1572     0067  3000               	movlw	0
  1573     0068  00A9               	movwf	___flmul@a
  1574     0069                     l2144:
  1575     0069  0833               	movf	___flmul@aexp,w
  1576     006A  1903               	btfsc	3,2
  1577     006B  286D               	goto	u3011
  1578     006C  286E               	goto	u3010
  1579     006D                     u3011:
  1580     006D  2873               	goto	l2148
  1581     006E                     u3010:
  1582     006E                     l2146:
  1583     006E  0838               	movf	___flmul@bexp,w
  1584     006F  1D03               	btfss	3,2
  1585     0070  2872               	goto	u3021
  1586     0071  2873               	goto	u3020
  1587     0072                     u3021:
  1588     0072  287C               	goto	l2152
  1589     0073                     u3020:
  1590     0073                     l2148:
  1591     0073  3000               	movlw	0
  1592     0074  00A8               	movwf	?___flmul+3
  1593     0075  3000               	movlw	0
  1594     0076  00A7               	movwf	?___flmul+2
  1595     0077  3000               	movlw	0
  1596     0078  00A6               	movwf	?___flmul+1
  1597     0079  3000               	movlw	0
  1598     007A  00A5               	movwf	?___flmul
  1599     007B  2B59               	goto	l585
  1600     007C                     l2152:
  1601     007C  0825               	movf	___flmul@b,w
  1602     007D  00F2               	movwf	__Umul8_16@multiplicand
  1603     007E  082B               	movf	___flmul@a+2,w
  1604     007F  120A  158A  24BE  120A  118A  	fcall	__Umul8_16
  1605     0084  0873               	movf	?__Umul8_16+1,w
  1606     0085  1283               	bcf	3,5	;RP0=0, select bank0
  1607     0086  1303               	bcf	3,6	;RP1=0, select bank0
  1608     0087  00BE               	movwf	___flmul@temp+1
  1609     0088  0872               	movf	?__Umul8_16,w
  1610     0089  00BD               	movwf	___flmul@temp
  1611     008A                     l2154:
  1612     008A  083D               	movf	___flmul@temp,w
  1613     008B  00AD               	movwf	??___flmul
  1614     008C  01AE               	clrf	??___flmul+1
  1615     008D  01AF               	clrf	??___flmul+2
  1616     008E  01B0               	clrf	??___flmul+3
  1617     008F  0830               	movf	??___flmul+3,w
  1618     0090  00B7               	movwf	___flmul@grs+3
  1619     0091  082F               	movf	??___flmul+2,w
  1620     0092  00B6               	movwf	___flmul@grs+2
  1621     0093  082E               	movf	??___flmul+1,w
  1622     0094  00B5               	movwf	___flmul@grs+1
  1623     0095  082D               	movf	??___flmul,w
  1624     0096  00B4               	movwf	___flmul@grs
  1625     0097                     l2156:
  1626     0097  083E               	movf	___flmul@temp+1,w
  1627     0098  00AD               	movwf	??___flmul
  1628     0099  01AE               	clrf	??___flmul+1
  1629     009A  01AF               	clrf	??___flmul+2
  1630     009B  01B0               	clrf	??___flmul+3
  1631     009C  0830               	movf	??___flmul+3,w
  1632     009D  00BC               	movwf	___flmul@prod+3
  1633     009E  082F               	movf	??___flmul+2,w
  1634     009F  00BB               	movwf	___flmul@prod+2
  1635     00A0  082E               	movf	??___flmul+1,w
  1636     00A1  00BA               	movwf	___flmul@prod+1
  1637     00A2  082D               	movf	??___flmul,w
  1638     00A3  00B9               	movwf	___flmul@prod
  1639     00A4  0826               	movf	___flmul@b+1,w
  1640     00A5  00F2               	movwf	__Umul8_16@multiplicand
  1641     00A6  082A               	movf	___flmul@a+1,w
  1642     00A7  120A  158A  24BE  120A  118A  	fcall	__Umul8_16
  1643     00AC  0873               	movf	?__Umul8_16+1,w
  1644     00AD  1283               	bcf	3,5	;RP0=0, select bank0
  1645     00AE  1303               	bcf	3,6	;RP1=0, select bank0
  1646     00AF  00BE               	movwf	___flmul@temp+1
  1647     00B0  0872               	movf	?__Umul8_16,w
  1648     00B1  00BD               	movwf	___flmul@temp
  1649     00B2                     l2158:
  1650     00B2  083D               	movf	___flmul@temp,w
  1651     00B3  00AD               	movwf	??___flmul
  1652     00B4  01AE               	clrf	??___flmul+1
  1653     00B5  01AF               	clrf	??___flmul+2
  1654     00B6  01B0               	clrf	??___flmul+3
  1655     00B7  082D               	movf	??___flmul,w
  1656     00B8  07B4               	addwf	___flmul@grs,f
  1657     00B9  082E               	movf	??___flmul+1,w
  1658     00BA  1103               	clrz
  1659     00BB  1803               	skipnc
  1660     00BC  3E01               	addlw	1
  1661     00BD  1903               	skipnz
  1662     00BE  28C0               	goto	u3031
  1663     00BF  07B5               	addwf	___flmul@grs+1,f
  1664     00C0                     u3031:
  1665     00C0  082F               	movf	??___flmul+2,w
  1666     00C1  1103               	clrz
  1667     00C2  1803               	skipnc
  1668     00C3  3E01               	addlw	1
  1669     00C4  1903               	skipnz
  1670     00C5  28C7               	goto	u3032
  1671     00C6  07B6               	addwf	___flmul@grs+2,f
  1672     00C7                     u3032:
  1673     00C7  0830               	movf	??___flmul+3,w
  1674     00C8  1103               	clrz
  1675     00C9  1803               	skipnc
  1676     00CA  3E01               	addlw	1
  1677     00CB  1903               	skipnz
  1678     00CC  28CE               	goto	u3033
  1679     00CD  07B7               	addwf	___flmul@grs+3,f
  1680     00CE                     u3033:
  1681     00CE                     l2160:
  1682     00CE  083E               	movf	___flmul@temp+1,w
  1683     00CF  00AD               	movwf	??___flmul
  1684     00D0  01AE               	clrf	??___flmul+1
  1685     00D1  01AF               	clrf	??___flmul+2
  1686     00D2  01B0               	clrf	??___flmul+3
  1687     00D3  082D               	movf	??___flmul,w
  1688     00D4  07B9               	addwf	___flmul@prod,f
  1689     00D5  082E               	movf	??___flmul+1,w
  1690     00D6  1103               	clrz
  1691     00D7  1803               	skipnc
  1692     00D8  3E01               	addlw	1
  1693     00D9  1903               	skipnz
  1694     00DA  28DC               	goto	u3041
  1695     00DB  07BA               	addwf	___flmul@prod+1,f
  1696     00DC                     u3041:
  1697     00DC  082F               	movf	??___flmul+2,w
  1698     00DD  1103               	clrz
  1699     00DE  1803               	skipnc
  1700     00DF  3E01               	addlw	1
  1701     00E0  1903               	skipnz
  1702     00E1  28E3               	goto	u3042
  1703     00E2  07BB               	addwf	___flmul@prod+2,f
  1704     00E3                     u3042:
  1705     00E3  0830               	movf	??___flmul+3,w
  1706     00E4  1103               	clrz
  1707     00E5  1803               	skipnc
  1708     00E6  3E01               	addlw	1
  1709     00E7  1903               	skipnz
  1710     00E8  28EA               	goto	u3043
  1711     00E9  07BC               	addwf	___flmul@prod+3,f
  1712     00EA                     u3043:
  1713     00EA  0827               	movf	___flmul@b+2,w
  1714     00EB  00F2               	movwf	__Umul8_16@multiplicand
  1715     00EC  0829               	movf	___flmul@a,w
  1716     00ED  120A  158A  24BE  120A  118A  	fcall	__Umul8_16
  1717     00F2  0873               	movf	?__Umul8_16+1,w
  1718     00F3  1283               	bcf	3,5	;RP0=0, select bank0
  1719     00F4  1303               	bcf	3,6	;RP1=0, select bank0
  1720     00F5  00BE               	movwf	___flmul@temp+1
  1721     00F6  0872               	movf	?__Umul8_16,w
  1722     00F7  00BD               	movwf	___flmul@temp
  1723     00F8                     l2162:
  1724     00F8  083D               	movf	___flmul@temp,w
  1725     00F9  00AD               	movwf	??___flmul
  1726     00FA  01AE               	clrf	??___flmul+1
  1727     00FB  01AF               	clrf	??___flmul+2
  1728     00FC  01B0               	clrf	??___flmul+3
  1729     00FD  082D               	movf	??___flmul,w
  1730     00FE  07B4               	addwf	___flmul@grs,f
  1731     00FF  082E               	movf	??___flmul+1,w
  1732     0100  1103               	clrz
  1733     0101  1803               	skipnc
  1734     0102  3E01               	addlw	1
  1735     0103  1903               	skipnz
  1736     0104  2906               	goto	u3051
  1737     0105  07B5               	addwf	___flmul@grs+1,f
  1738     0106                     u3051:
  1739     0106  082F               	movf	??___flmul+2,w
  1740     0107  1103               	clrz
  1741     0108  1803               	skipnc
  1742     0109  3E01               	addlw	1
  1743     010A  1903               	skipnz
  1744     010B  290D               	goto	u3052
  1745     010C  07B6               	addwf	___flmul@grs+2,f
  1746     010D                     u3052:
  1747     010D  0830               	movf	??___flmul+3,w
  1748     010E  1103               	clrz
  1749     010F  1803               	skipnc
  1750     0110  3E01               	addlw	1
  1751     0111  1903               	skipnz
  1752     0112  2914               	goto	u3053
  1753     0113  07B7               	addwf	___flmul@grs+3,f
  1754     0114                     u3053:
  1755     0114                     l2164:
  1756     0114  083E               	movf	___flmul@temp+1,w
  1757     0115  00AD               	movwf	??___flmul
  1758     0116  01AE               	clrf	??___flmul+1
  1759     0117  01AF               	clrf	??___flmul+2
  1760     0118  01B0               	clrf	??___flmul+3
  1761     0119  082D               	movf	??___flmul,w
  1762     011A  07B9               	addwf	___flmul@prod,f
  1763     011B  082E               	movf	??___flmul+1,w
  1764     011C  1103               	clrz
  1765     011D  1803               	skipnc
  1766     011E  3E01               	addlw	1
  1767     011F  1903               	skipnz
  1768     0120  2922               	goto	u3061
  1769     0121  07BA               	addwf	___flmul@prod+1,f
  1770     0122                     u3061:
  1771     0122  082F               	movf	??___flmul+2,w
  1772     0123  1103               	clrz
  1773     0124  1803               	skipnc
  1774     0125  3E01               	addlw	1
  1775     0126  1903               	skipnz
  1776     0127  2929               	goto	u3062
  1777     0128  07BB               	addwf	___flmul@prod+2,f
  1778     0129                     u3062:
  1779     0129  0830               	movf	??___flmul+3,w
  1780     012A  1103               	clrz
  1781     012B  1803               	skipnc
  1782     012C  3E01               	addlw	1
  1783     012D  1903               	skipnz
  1784     012E  2930               	goto	u3063
  1785     012F  07BC               	addwf	___flmul@prod+3,f
  1786     0130                     u3063:
  1787     0130                     l2166:
  1788     0130  3008               	movlw	8
  1789     0131  00AD               	movwf	??___flmul
  1790     0132                     u3075:
  1791     0132  1003               	clrc
  1792     0133  0DB4               	rlf	___flmul@grs,f
  1793     0134  0DB5               	rlf	___flmul@grs+1,f
  1794     0135  0DB6               	rlf	___flmul@grs+2,f
  1795     0136  0DB7               	rlf	___flmul@grs+3,f
  1796     0137  0BAD               	decfsz	??___flmul,f
  1797     0138  2932               	goto	u3075
  1798     0139                     l2168:
  1799     0139  0826               	movf	___flmul@b+1,w
  1800     013A  00F2               	movwf	__Umul8_16@multiplicand
  1801     013B  0829               	movf	___flmul@a,w
  1802     013C  120A  158A  24BE  120A  118A  	fcall	__Umul8_16
  1803     0141  0873               	movf	?__Umul8_16+1,w
  1804     0142  1283               	bcf	3,5	;RP0=0, select bank0
  1805     0143  1303               	bcf	3,6	;RP1=0, select bank0
  1806     0144  00BE               	movwf	___flmul@temp+1
  1807     0145  0872               	movf	?__Umul8_16,w
  1808     0146  00BD               	movwf	___flmul@temp
  1809     0147                     l2170:
  1810     0147  083D               	movf	___flmul@temp,w
  1811     0148  00AD               	movwf	??___flmul
  1812     0149  083E               	movf	___flmul@temp+1,w
  1813     014A  00AE               	movwf	??___flmul+1
  1814     014B  01AF               	clrf	??___flmul+2
  1815     014C  01B0               	clrf	??___flmul+3
  1816     014D  082D               	movf	??___flmul,w
  1817     014E  07B4               	addwf	___flmul@grs,f
  1818     014F  082E               	movf	??___flmul+1,w
  1819     0150  1103               	clrz
  1820     0151  1803               	skipnc
  1821     0152  3E01               	addlw	1
  1822     0153  1903               	skipnz
  1823     0154  2956               	goto	u3081
  1824     0155  07B5               	addwf	___flmul@grs+1,f
  1825     0156                     u3081:
  1826     0156  082F               	movf	??___flmul+2,w
  1827     0157  1103               	clrz
  1828     0158  1803               	skipnc
  1829     0159  3E01               	addlw	1
  1830     015A  1903               	skipnz
  1831     015B  295D               	goto	u3082
  1832     015C  07B6               	addwf	___flmul@grs+2,f
  1833     015D                     u3082:
  1834     015D  0830               	movf	??___flmul+3,w
  1835     015E  1103               	clrz
  1836     015F  1803               	skipnc
  1837     0160  3E01               	addlw	1
  1838     0161  1903               	skipnz
  1839     0162  2964               	goto	u3083
  1840     0163  07B7               	addwf	___flmul@grs+3,f
  1841     0164                     u3083:
  1842     0164                     l2172:
  1843     0164  0825               	movf	___flmul@b,w
  1844     0165  00F2               	movwf	__Umul8_16@multiplicand
  1845     0166  082A               	movf	___flmul@a+1,w
  1846     0167  120A  158A  24BE  120A  118A  	fcall	__Umul8_16
  1847     016C  0873               	movf	?__Umul8_16+1,w
  1848     016D  1283               	bcf	3,5	;RP0=0, select bank0
  1849     016E  1303               	bcf	3,6	;RP1=0, select bank0
  1850     016F  00BE               	movwf	___flmul@temp+1
  1851     0170  0872               	movf	?__Umul8_16,w
  1852     0171  00BD               	movwf	___flmul@temp
  1853     0172                     l2174:
  1854     0172  083D               	movf	___flmul@temp,w
  1855     0173  00AD               	movwf	??___flmul
  1856     0174  083E               	movf	___flmul@temp+1,w
  1857     0175  00AE               	movwf	??___flmul+1
  1858     0176  01AF               	clrf	??___flmul+2
  1859     0177  01B0               	clrf	??___flmul+3
  1860     0178  082D               	movf	??___flmul,w
  1861     0179  07B4               	addwf	___flmul@grs,f
  1862     017A  082E               	movf	??___flmul+1,w
  1863     017B  1103               	clrz
  1864     017C  1803               	skipnc
  1865     017D  3E01               	addlw	1
  1866     017E  1903               	skipnz
  1867     017F  2981               	goto	u3091
  1868     0180  07B5               	addwf	___flmul@grs+1,f
  1869     0181                     u3091:
  1870     0181  082F               	movf	??___flmul+2,w
  1871     0182  1103               	clrz
  1872     0183  1803               	skipnc
  1873     0184  3E01               	addlw	1
  1874     0185  1903               	skipnz
  1875     0186  2988               	goto	u3092
  1876     0187  07B6               	addwf	___flmul@grs+2,f
  1877     0188                     u3092:
  1878     0188  0830               	movf	??___flmul+3,w
  1879     0189  1103               	clrz
  1880     018A  1803               	skipnc
  1881     018B  3E01               	addlw	1
  1882     018C  1903               	skipnz
  1883     018D  298F               	goto	u3093
  1884     018E  07B7               	addwf	___flmul@grs+3,f
  1885     018F                     u3093:
  1886     018F                     l2176:
  1887     018F  3008               	movlw	8
  1888     0190  00AD               	movwf	??___flmul
  1889     0191                     u3105:
  1890     0191  1003               	clrc
  1891     0192  0DB4               	rlf	___flmul@grs,f
  1892     0193  0DB5               	rlf	___flmul@grs+1,f
  1893     0194  0DB6               	rlf	___flmul@grs+2,f
  1894     0195  0DB7               	rlf	___flmul@grs+3,f
  1895     0196  0BAD               	decfsz	??___flmul,f
  1896     0197  2991               	goto	u3105
  1897     0198  0825               	movf	___flmul@b,w
  1898     0199  00F2               	movwf	__Umul8_16@multiplicand
  1899     019A  0829               	movf	___flmul@a,w
  1900     019B  120A  158A  24BE  120A  118A  	fcall	__Umul8_16
  1901     01A0  0873               	movf	?__Umul8_16+1,w
  1902     01A1  1283               	bcf	3,5	;RP0=0, select bank0
  1903     01A2  1303               	bcf	3,6	;RP1=0, select bank0
  1904     01A3  00BE               	movwf	___flmul@temp+1
  1905     01A4  0872               	movf	?__Umul8_16,w
  1906     01A5  00BD               	movwf	___flmul@temp
  1907     01A6                     l2178:
  1908     01A6  083D               	movf	___flmul@temp,w
  1909     01A7  00AD               	movwf	??___flmul
  1910     01A8  083E               	movf	___flmul@temp+1,w
  1911     01A9  00AE               	movwf	??___flmul+1
  1912     01AA  01AF               	clrf	??___flmul+2
  1913     01AB  01B0               	clrf	??___flmul+3
  1914     01AC  082D               	movf	??___flmul,w
  1915     01AD  07B4               	addwf	___flmul@grs,f
  1916     01AE  082E               	movf	??___flmul+1,w
  1917     01AF  1103               	clrz
  1918     01B0  1803               	skipnc
  1919     01B1  3E01               	addlw	1
  1920     01B2  1903               	skipnz
  1921     01B3  29B5               	goto	u3111
  1922     01B4  07B5               	addwf	___flmul@grs+1,f
  1923     01B5                     u3111:
  1924     01B5  082F               	movf	??___flmul+2,w
  1925     01B6  1103               	clrz
  1926     01B7  1803               	skipnc
  1927     01B8  3E01               	addlw	1
  1928     01B9  1903               	skipnz
  1929     01BA  29BC               	goto	u3112
  1930     01BB  07B6               	addwf	___flmul@grs+2,f
  1931     01BC                     u3112:
  1932     01BC  0830               	movf	??___flmul+3,w
  1933     01BD  1103               	clrz
  1934     01BE  1803               	skipnc
  1935     01BF  3E01               	addlw	1
  1936     01C0  1903               	skipnz
  1937     01C1  29C3               	goto	u3113
  1938     01C2  07B7               	addwf	___flmul@grs+3,f
  1939     01C3                     u3113:
  1940     01C3                     l2180:
  1941     01C3  0826               	movf	___flmul@b+1,w
  1942     01C4  00F2               	movwf	__Umul8_16@multiplicand
  1943     01C5  082B               	movf	___flmul@a+2,w
  1944     01C6  120A  158A  24BE  120A  118A  	fcall	__Umul8_16
  1945     01CB  0873               	movf	?__Umul8_16+1,w
  1946     01CC  1283               	bcf	3,5	;RP0=0, select bank0
  1947     01CD  1303               	bcf	3,6	;RP1=0, select bank0
  1948     01CE  00BE               	movwf	___flmul@temp+1
  1949     01CF  0872               	movf	?__Umul8_16,w
  1950     01D0  00BD               	movwf	___flmul@temp
  1951     01D1  083D               	movf	___flmul@temp,w
  1952     01D2  00AD               	movwf	??___flmul
  1953     01D3  083E               	movf	___flmul@temp+1,w
  1954     01D4  00AE               	movwf	??___flmul+1
  1955     01D5  01AF               	clrf	??___flmul+2
  1956     01D6  01B0               	clrf	??___flmul+3
  1957     01D7  082D               	movf	??___flmul,w
  1958     01D8  07B9               	addwf	___flmul@prod,f
  1959     01D9  082E               	movf	??___flmul+1,w
  1960     01DA  1103               	clrz
  1961     01DB  1803               	skipnc
  1962     01DC  3E01               	addlw	1
  1963     01DD  1903               	skipnz
  1964     01DE  29E0               	goto	u3121
  1965     01DF  07BA               	addwf	___flmul@prod+1,f
  1966     01E0                     u3121:
  1967     01E0  082F               	movf	??___flmul+2,w
  1968     01E1  1103               	clrz
  1969     01E2  1803               	skipnc
  1970     01E3  3E01               	addlw	1
  1971     01E4  1903               	skipnz
  1972     01E5  29E7               	goto	u3122
  1973     01E6  07BB               	addwf	___flmul@prod+2,f
  1974     01E7                     u3122:
  1975     01E7  0830               	movf	??___flmul+3,w
  1976     01E8  1103               	clrz
  1977     01E9  1803               	skipnc
  1978     01EA  3E01               	addlw	1
  1979     01EB  1903               	skipnz
  1980     01EC  29EE               	goto	u3123
  1981     01ED  07BC               	addwf	___flmul@prod+3,f
  1982     01EE                     u3123:
  1983     01EE                     l2182:
  1984     01EE  0827               	movf	___flmul@b+2,w
  1985     01EF  00F2               	movwf	__Umul8_16@multiplicand
  1986     01F0  082A               	movf	___flmul@a+1,w
  1987     01F1  120A  158A  24BE  120A  118A  	fcall	__Umul8_16
  1988     01F6  0873               	movf	?__Umul8_16+1,w
  1989     01F7  1283               	bcf	3,5	;RP0=0, select bank0
  1990     01F8  1303               	bcf	3,6	;RP1=0, select bank0
  1991     01F9  00BE               	movwf	___flmul@temp+1
  1992     01FA  0872               	movf	?__Umul8_16,w
  1993     01FB  00BD               	movwf	___flmul@temp
  1994     01FC                     l2184:
  1995     01FC  083D               	movf	___flmul@temp,w
  1996     01FD  00AD               	movwf	??___flmul
  1997     01FE  083E               	movf	___flmul@temp+1,w
  1998     01FF  00AE               	movwf	??___flmul+1
  1999     0200  01AF               	clrf	??___flmul+2
  2000     0201  01B0               	clrf	??___flmul+3
  2001     0202  082D               	movf	??___flmul,w
  2002     0203  07B9               	addwf	___flmul@prod,f
  2003     0204  082E               	movf	??___flmul+1,w
  2004     0205  1103               	clrz
  2005     0206  1803               	skipnc
  2006     0207  3E01               	addlw	1
  2007     0208  1903               	skipnz
  2008     0209  2A0B               	goto	u3131
  2009     020A  07BA               	addwf	___flmul@prod+1,f
  2010     020B                     u3131:
  2011     020B  082F               	movf	??___flmul+2,w
  2012     020C  1103               	clrz
  2013     020D  1803               	skipnc
  2014     020E  3E01               	addlw	1
  2015     020F  1903               	skipnz
  2016     0210  2A12               	goto	u3132
  2017     0211  07BB               	addwf	___flmul@prod+2,f
  2018     0212                     u3132:
  2019     0212  0830               	movf	??___flmul+3,w
  2020     0213  1103               	clrz
  2021     0214  1803               	skipnc
  2022     0215  3E01               	addlw	1
  2023     0216  1903               	skipnz
  2024     0217  2A19               	goto	u3133
  2025     0218  07BC               	addwf	___flmul@prod+3,f
  2026     0219                     u3133:
  2027     0219  0827               	movf	___flmul@b+2,w
  2028     021A  00F2               	movwf	__Umul8_16@multiplicand
  2029     021B  082B               	movf	___flmul@a+2,w
  2030     021C  120A  158A  24BE  120A  118A  	fcall	__Umul8_16
  2031     0221  0873               	movf	?__Umul8_16+1,w
  2032     0222  1283               	bcf	3,5	;RP0=0, select bank0
  2033     0223  1303               	bcf	3,6	;RP1=0, select bank0
  2034     0224  00BE               	movwf	___flmul@temp+1
  2035     0225  0872               	movf	?__Umul8_16,w
  2036     0226  00BD               	movwf	___flmul@temp
  2037     0227                     l2186:
  2038     0227  083D               	movf	___flmul@temp,w
  2039     0228  00AD               	movwf	??___flmul
  2040     0229  083E               	movf	___flmul@temp+1,w
  2041     022A  00AE               	movwf	??___flmul+1
  2042     022B  01AF               	clrf	??___flmul+2
  2043     022C  01B0               	clrf	??___flmul+3
  2044     022D  3008               	movlw	8
  2045     022E                     u3145:
  2046     022E  1003               	clrc
  2047     022F  0DAD               	rlf	??___flmul,f
  2048     0230  0DAE               	rlf	??___flmul+1,f
  2049     0231  0DAF               	rlf	??___flmul+2,f
  2050     0232  0DB0               	rlf	??___flmul+3,f
  2051     0233                     u3140:
  2052     0233  3EFF               	addlw	-1
  2053     0234  1D03               	skipz
  2054     0235  2A2E               	goto	u3145
  2055     0236  082D               	movf	??___flmul,w
  2056     0237  07B9               	addwf	___flmul@prod,f
  2057     0238  082E               	movf	??___flmul+1,w
  2058     0239  1103               	clrz
  2059     023A  1803               	skipnc
  2060     023B  3E01               	addlw	1
  2061     023C  1903               	skipnz
  2062     023D  2A3F               	goto	u3151
  2063     023E  07BA               	addwf	___flmul@prod+1,f
  2064     023F                     u3151:
  2065     023F  082F               	movf	??___flmul+2,w
  2066     0240  1103               	clrz
  2067     0241  1803               	skipnc
  2068     0242  3E01               	addlw	1
  2069     0243  1903               	skipnz
  2070     0244  2A46               	goto	u3152
  2071     0245  07BB               	addwf	___flmul@prod+2,f
  2072     0246                     u3152:
  2073     0246  0830               	movf	??___flmul+3,w
  2074     0247  1103               	clrz
  2075     0248  1803               	skipnc
  2076     0249  3E01               	addlw	1
  2077     024A  1903               	skipnz
  2078     024B  2A4D               	goto	u3153
  2079     024C  07BC               	addwf	___flmul@prod+3,f
  2080     024D                     u3153:
  2081     024D                     l2188:
  2082     024D  0834               	movf	___flmul@grs,w
  2083     024E  00AD               	movwf	??___flmul
  2084     024F  0835               	movf	___flmul@grs+1,w
  2085     0250  00AE               	movwf	??___flmul+1
  2086     0251  0836               	movf	___flmul@grs+2,w
  2087     0252  00AF               	movwf	??___flmul+2
  2088     0253  0837               	movf	___flmul@grs+3,w
  2089     0254  00B0               	movwf	??___flmul+3
  2090     0255  3018               	movlw	24
  2091     0256                     u3165:
  2092     0256  1003               	clrc
  2093     0257  0CB0               	rrf	??___flmul+3,f
  2094     0258  0CAF               	rrf	??___flmul+2,f
  2095     0259  0CAE               	rrf	??___flmul+1,f
  2096     025A  0CAD               	rrf	??___flmul,f
  2097     025B                     u3160:
  2098     025B  3EFF               	addlw	-1
  2099     025C  1D03               	skipz
  2100     025D  2A56               	goto	u3165
  2101     025E  082D               	movf	??___flmul,w
  2102     025F  07B9               	addwf	___flmul@prod,f
  2103     0260  082E               	movf	??___flmul+1,w
  2104     0261  1103               	clrz
  2105     0262  1803               	skipnc
  2106     0263  3E01               	addlw	1
  2107     0264  1903               	skipnz
  2108     0265  2A67               	goto	u3171
  2109     0266  07BA               	addwf	___flmul@prod+1,f
  2110     0267                     u3171:
  2111     0267  082F               	movf	??___flmul+2,w
  2112     0268  1103               	clrz
  2113     0269  1803               	skipnc
  2114     026A  3E01               	addlw	1
  2115     026B  1903               	skipnz
  2116     026C  2A6E               	goto	u3172
  2117     026D  07BB               	addwf	___flmul@prod+2,f
  2118     026E                     u3172:
  2119     026E  0830               	movf	??___flmul+3,w
  2120     026F  1103               	clrz
  2121     0270  1803               	skipnc
  2122     0271  3E01               	addlw	1
  2123     0272  1903               	skipnz
  2124     0273  2A75               	goto	u3173
  2125     0274  07BC               	addwf	___flmul@prod+3,f
  2126     0275                     u3173:
  2127     0275                     l2190:
  2128     0275  3008               	movlw	8
  2129     0276  00AD               	movwf	??___flmul
  2130     0277                     u3185:
  2131     0277  1003               	clrc
  2132     0278  0DB4               	rlf	___flmul@grs,f
  2133     0279  0DB5               	rlf	___flmul@grs+1,f
  2134     027A  0DB6               	rlf	___flmul@grs+2,f
  2135     027B  0DB7               	rlf	___flmul@grs+3,f
  2136     027C  0BAD               	decfsz	??___flmul,f
  2137     027D  2A77               	goto	u3185
  2138     027E                     l2192:
  2139     027E  0838               	movf	___flmul@bexp,w
  2140     027F  0733               	addwf	___flmul@aexp,w
  2141     0280  00AD               	movwf	??___flmul
  2142     0281  01AE               	clrf	??___flmul+1
  2143     0282  0DAE               	rlf	??___flmul+1,f
  2144     0283  082D               	movf	??___flmul,w
  2145     0284  3E82               	addlw	130
  2146     0285  00BD               	movwf	___flmul@temp
  2147     0286  082E               	movf	??___flmul+1,w
  2148     0287  1803               	skipnc
  2149     0288  3E01               	addlw	1
  2150     0289  3EFF               	addlw	255
  2151     028A  00BE               	movwf	___flmul@temp+1
  2152     028B  2AA9               	goto	l2204
  2153     028C                     l2194:
  2154     028C  3001               	movlw	1
  2155     028D  00AD               	movwf	??___flmul
  2156     028E                     u3195:
  2157     028E  1003               	clrc
  2158     028F  0DB9               	rlf	___flmul@prod,f
  2159     0290  0DBA               	rlf	___flmul@prod+1,f
  2160     0291  0DBB               	rlf	___flmul@prod+2,f
  2161     0292  0DBC               	rlf	___flmul@prod+3,f
  2162     0293  0BAD               	decfsz	??___flmul,f
  2163     0294  2A8E               	goto	u3195
  2164     0295                     l2196:
  2165     0295  1FB7               	btfss	___flmul@grs+3,7
  2166     0296  2A98               	goto	u3201
  2167     0297  2A99               	goto	u3200
  2168     0298                     u3201:
  2169     0298  2A9A               	goto	l2200
  2170     0299                     u3200:
  2171     0299                     l2198:
  2172     0299  1439               	bsf	___flmul@prod,0
  2173     029A                     l2200:
  2174     029A  3001               	movlw	1
  2175     029B  00AD               	movwf	??___flmul
  2176     029C                     u3215:
  2177     029C  1003               	clrc
  2178     029D  0DB4               	rlf	___flmul@grs,f
  2179     029E  0DB5               	rlf	___flmul@grs+1,f
  2180     029F  0DB6               	rlf	___flmul@grs+2,f
  2181     02A0  0DB7               	rlf	___flmul@grs+3,f
  2182     02A1  0BAD               	decfsz	??___flmul,f
  2183     02A2  2A9C               	goto	u3215
  2184     02A3                     l2202:
  2185     02A3  30FF               	movlw	255
  2186     02A4  07BD               	addwf	___flmul@temp,f
  2187     02A5  1803               	skipnc
  2188     02A6  0ABE               	incf	___flmul@temp+1,f
  2189     02A7  30FF               	movlw	255
  2190     02A8  07BE               	addwf	___flmul@temp+1,f
  2191     02A9                     l2204:
  2192     02A9  1FBB               	btfss	___flmul@prod+2,7
  2193     02AA  2AAC               	goto	u3221
  2194     02AB  2AAD               	goto	u3220
  2195     02AC                     u3221:
  2196     02AC  2A8C               	goto	l2194
  2197     02AD                     u3220:
  2198     02AD                     l2206:
  2199     02AD  01B3               	clrf	___flmul@aexp
  2200     02AE                     l2208:
  2201     02AE  1FB7               	btfss	___flmul@grs+3,7
  2202     02AF  2AB1               	goto	u3231
  2203     02B0  2AB2               	goto	u3230
  2204     02B1                     u3231:
  2205     02B1  2ACE               	goto	l2216
  2206     02B2                     u3230:
  2207     02B2                     l2210:
  2208     02B2  30FF               	movlw	255
  2209     02B3  0534               	andwf	___flmul@grs,w
  2210     02B4  00AD               	movwf	??___flmul
  2211     02B5  30FF               	movlw	255
  2212     02B6  0535               	andwf	___flmul@grs+1,w
  2213     02B7  00AE               	movwf	??___flmul+1
  2214     02B8  30FF               	movlw	255
  2215     02B9  0536               	andwf	___flmul@grs+2,w
  2216     02BA  00AF               	movwf	??___flmul+2
  2217     02BB  307F               	movlw	127
  2218     02BC  0537               	andwf	___flmul@grs+3,w
  2219     02BD  00B0               	movwf	??___flmul+3
  2220     02BE  0830               	movf	??___flmul+3,w
  2221     02BF  042F               	iorwf	??___flmul+2,w
  2222     02C0  042E               	iorwf	??___flmul+1,w
  2223     02C1  042D               	iorwf	??___flmul,w
  2224     02C2  1903               	skipnz
  2225     02C3  2AC5               	goto	u3241
  2226     02C4  2AC6               	goto	u3240
  2227     02C5                     u3241:
  2228     02C5  2AC9               	goto	l591
  2229     02C6                     u3240:
  2230     02C6                     l2212:
  2231     02C6  01B3               	clrf	___flmul@aexp
  2232     02C7  0AB3               	incf	___flmul@aexp,f
  2233     02C8  2ACE               	goto	l2216
  2234     02C9                     l591:
  2235     02C9  1C39               	btfss	___flmul@prod,0
  2236     02CA  2ACC               	goto	u3251
  2237     02CB  2ACD               	goto	u3250
  2238     02CC                     u3251:
  2239     02CC  2ACE               	goto	l2216
  2240     02CD                     u3250:
  2241     02CD  2AC6               	goto	l2212
  2242     02CE                     l2216:
  2243     02CE  0833               	movf	___flmul@aexp,w
  2244     02CF  1903               	btfsc	3,2
  2245     02D0  2AD2               	goto	u3261
  2246     02D1  2AD3               	goto	u3260
  2247     02D2                     u3261:
  2248     02D2  2B04               	goto	l2226
  2249     02D3                     u3260:
  2250     02D3                     l2218:
  2251     02D3  3001               	movlw	1
  2252     02D4  07B9               	addwf	___flmul@prod,f
  2253     02D5  3000               	movlw	0
  2254     02D6  1803               	skipnc
  2255     02D7  3001               	movlw	1
  2256     02D8  07BA               	addwf	___flmul@prod+1,f
  2257     02D9  3000               	movlw	0
  2258     02DA  1803               	skipnc
  2259     02DB  3001               	movlw	1
  2260     02DC  07BB               	addwf	___flmul@prod+2,f
  2261     02DD  3000               	movlw	0
  2262     02DE  1803               	skipnc
  2263     02DF  3001               	movlw	1
  2264     02E0  07BC               	addwf	___flmul@prod+3,f
  2265     02E1                     l2220:
  2266     02E1  1C3C               	btfss	___flmul@prod+3,0
  2267     02E2  2AE4               	goto	u3271
  2268     02E3  2AE5               	goto	u3270
  2269     02E4                     u3271:
  2270     02E4  2B04               	goto	l2226
  2271     02E5                     u3270:
  2272     02E5                     l2222:
  2273     02E5  0839               	movf	___flmul@prod,w
  2274     02E6  00AD               	movwf	??___flmul
  2275     02E7  083A               	movf	___flmul@prod+1,w
  2276     02E8  00AE               	movwf	??___flmul+1
  2277     02E9  083B               	movf	___flmul@prod+2,w
  2278     02EA  00AF               	movwf	??___flmul+2
  2279     02EB  083C               	movf	___flmul@prod+3,w
  2280     02EC  00B0               	movwf	??___flmul+3
  2281     02ED  3001               	movlw	1
  2282     02EE  00B1               	movwf	??___flmul+4
  2283     02EF                     u3285:
  2284     02EF  0D30               	rlf	??___flmul+3,w
  2285     02F0  0CB0               	rrf	??___flmul+3,f
  2286     02F1  0CAF               	rrf	??___flmul+2,f
  2287     02F2  0CAE               	rrf	??___flmul+1,f
  2288     02F3  0CAD               	rrf	??___flmul,f
  2289     02F4                     u3280:
  2290     02F4  0BB1               	decfsz	??___flmul+4,f
  2291     02F5  2AEF               	goto	u3285
  2292     02F6  0830               	movf	??___flmul+3,w
  2293     02F7  00BC               	movwf	___flmul@prod+3
  2294     02F8  082F               	movf	??___flmul+2,w
  2295     02F9  00BB               	movwf	___flmul@prod+2
  2296     02FA  082E               	movf	??___flmul+1,w
  2297     02FB  00BA               	movwf	___flmul@prod+1
  2298     02FC  082D               	movf	??___flmul,w
  2299     02FD  00B9               	movwf	___flmul@prod
  2300     02FE                     l2224:
  2301     02FE  3001               	movlw	1
  2302     02FF  07BD               	addwf	___flmul@temp,f
  2303     0300  1803               	skipnc
  2304     0301  0ABE               	incf	___flmul@temp+1,f
  2305     0302  3000               	movlw	0
  2306     0303  07BE               	addwf	___flmul@temp+1,f
  2307     0304                     l2226:
  2308     0304  083E               	movf	___flmul@temp+1,w
  2309     0305  3A80               	xorlw	128
  2310     0306  00FF               	movwf	btemp+1
  2311     0307  3080               	movlw	128
  2312     0308  027F               	subwf	btemp+1,w
  2313     0309  1D03               	skipz
  2314     030A  2B0D               	goto	u3295
  2315     030B  30FF               	movlw	255
  2316     030C  023D               	subwf	___flmul@temp,w
  2317     030D                     u3295:
  2318     030D  1C03               	skipc
  2319     030E  2B10               	goto	u3291
  2320     030F  2B11               	goto	u3290
  2321     0310                     u3291:
  2322     0310  2B1C               	goto	l2230
  2323     0311                     u3290:
  2324     0311                     l2228:
  2325     0311  307F               	movlw	127
  2326     0312  1283               	bcf	3,5	;RP0=0, select bank0
  2327     0313  1303               	bcf	3,6	;RP1=0, select bank0
  2328     0314  00BC               	movwf	___flmul@prod+3
  2329     0315  3080               	movlw	128
  2330     0316  00BB               	movwf	___flmul@prod+2
  2331     0317  3000               	movlw	0
  2332     0318  00BA               	movwf	___flmul@prod+1
  2333     0319  3000               	movlw	0
  2334     031A  00B9               	movwf	___flmul@prod
  2335     031B  2B4D               	goto	l2244
  2336     031C                     l2230:
  2337     031C  1283               	bcf	3,5	;RP0=0, select bank0
  2338     031D  1303               	bcf	3,6	;RP1=0, select bank0
  2339     031E  083E               	movf	___flmul@temp+1,w
  2340     031F  3A80               	xorlw	128
  2341     0320  00FF               	movwf	btemp+1
  2342     0321  3080               	movlw	128
  2343     0322  027F               	subwf	btemp+1,w
  2344     0323  1D03               	skipz
  2345     0324  2B27               	goto	u3305
  2346     0325  3001               	movlw	1
  2347     0326  023D               	subwf	___flmul@temp,w
  2348     0327                     u3305:
  2349     0327  1803               	skipnc
  2350     0328  2B2A               	goto	u3301
  2351     0329  2B2B               	goto	u3300
  2352     032A                     u3301:
  2353     032A  2B37               	goto	l2236
  2354     032B                     u3300:
  2355     032B                     l2232:
  2356     032B  3000               	movlw	0
  2357     032C  1283               	bcf	3,5	;RP0=0, select bank0
  2358     032D  1303               	bcf	3,6	;RP1=0, select bank0
  2359     032E  00BC               	movwf	___flmul@prod+3
  2360     032F  3000               	movlw	0
  2361     0330  00BB               	movwf	___flmul@prod+2
  2362     0331  3000               	movlw	0
  2363     0332  00BA               	movwf	___flmul@prod+1
  2364     0333  3000               	movlw	0
  2365     0334  00B9               	movwf	___flmul@prod
  2366     0335                     l2234:
  2367     0335  01B2               	clrf	___flmul@sign
  2368     0336  2B4D               	goto	l2244
  2369     0337                     l2236:
  2370     0337  1283               	bcf	3,5	;RP0=0, select bank0
  2371     0338  1303               	bcf	3,6	;RP1=0, select bank0
  2372     0339  083D               	movf	___flmul@temp,w
  2373     033A  00B8               	movwf	___flmul@bexp
  2374     033B  30FF               	movlw	255
  2375     033C  05B9               	andwf	___flmul@prod,f
  2376     033D  30FF               	movlw	255
  2377     033E  05BA               	andwf	___flmul@prod+1,f
  2378     033F  307F               	movlw	127
  2379     0340  05BB               	andwf	___flmul@prod+2,f
  2380     0341  3000               	movlw	0
  2381     0342  05BC               	andwf	___flmul@prod+3,f
  2382     0343                     l2238:
  2383     0343  1C38               	btfss	___flmul@bexp,0
  2384     0344  2B46               	goto	u3311
  2385     0345  2B47               	goto	u3310
  2386     0346                     u3311:
  2387     0346  2B48               	goto	l2242
  2388     0347                     u3310:
  2389     0347                     l2240:
  2390     0347  17BB               	bsf	___flmul@prod+2,7
  2391     0348                     l2242:
  2392     0348  0838               	movf	___flmul@bexp,w
  2393     0349  00AD               	movwf	??___flmul
  2394     034A  1003               	clrc
  2395     034B  0C2D               	rrf	??___flmul,w
  2396     034C  00BC               	movwf	___flmul@prod+3
  2397     034D                     l2244:
  2398     034D  0832               	movf	___flmul@sign,w
  2399     034E  00FF               	movwf	btemp+1
  2400     034F  087F               	movf	btemp+1,w
  2401     0350  04BC               	iorwf	___flmul@prod+3,f
  2402     0351                     l2246:
  2403     0351  083C               	movf	___flmul@prod+3,w
  2404     0352  00A8               	movwf	?___flmul+3
  2405     0353  083B               	movf	___flmul@prod+2,w
  2406     0354  00A7               	movwf	?___flmul+2
  2407     0355  083A               	movf	___flmul@prod+1,w
  2408     0356  00A6               	movwf	?___flmul+1
  2409     0357  0839               	movf	___flmul@prod,w
  2410     0358  00A5               	movwf	?___flmul
  2411     0359                     l585:
  2412     0359  0008               	return
  2413     035A                     __end_of___flmul:
  2414                           
  2415                           	psect	text6
  2416     0CBE                     __ptext6:	
  2417 ;; *************** function __Umul8_16 *****************
  2418 ;; Defined at:
  2419 ;;		line 4 in file "C:\Program Files\Microchip\xc8\v2.45\pic\sources\c99\common\Umul8_16.c"
  2420 ;; Parameters:    Size  Location     Type
  2421 ;;  multiplier      1    wreg     unsigned char 
  2422 ;;  multiplicand    1    2[COMMON] unsigned char 
  2423 ;; Auto vars:     Size  Location     Type
  2424 ;;  multiplier      1    4[BANK0 ] unsigned char 
  2425 ;;  word_mpld       2    2[BANK0 ] unsigned short 
  2426 ;;  product         2    0[BANK0 ] unsigned short 
  2427 ;; Return value:  Size  Location     Type
  2428 ;;                  2    2[COMMON] unsigned int 
  2429 ;; Registers used:
  2430 ;;		wreg, status,2, status,0
  2431 ;; Tracked objects:
  2432 ;;		On entry : 0/0
  2433 ;;		On exit  : 0/0
  2434 ;;		Unchanged: 0/0
  2435 ;; Data sizes:     COMMON   BANK0   BANK1   BANK3   BANK2
  2436 ;;      Params:         2       0       0       0       0
  2437 ;;      Locals:         0       5       0       0       0
  2438 ;;      Temps:          2       0       0       0       0
  2439 ;;      Totals:         4       5       0       0       0
  2440 ;;Total ram usage:        9 bytes
  2441 ;; Hardware stack levels used: 1
  2442 ;; Hardware stack levels required when called: 1
  2443 ;; This function calls:
  2444 ;;		Nothing
  2445 ;; This function is called by:
  2446 ;;		___flmul
  2447 ;; This function uses a non-reentrant model
  2448 ;;
  2449                           
  2450     0CBE                     __Umul8_16:	
  2451                           ;psect for function __Umul8_16
  2452                           
  2453                           
  2454                           ;incstack = 0
  2455                           ; Regs used in __Umul8_16: [wreg+status,2+status,0]
  2456                           ;__Umul8_16@multiplier stored from wreg
  2457     0CBE  1283               	bcf	3,5	;RP0=0, select bank0
  2458     0CBF  1303               	bcf	3,6	;RP1=0, select bank0
  2459     0CC0  00A4               	movwf	__Umul8_16@multiplier
  2460     0CC1                     l2094:
  2461     0CC1  01A0               	clrf	__Umul8_16@product
  2462     0CC2  01A1               	clrf	__Umul8_16@product+1
  2463     0CC3                     l2096:
  2464     0CC3  0872               	movf	__Umul8_16@multiplicand,w
  2465     0CC4  00F4               	movwf	??__Umul8_16
  2466     0CC5  01F5               	clrf	??__Umul8_16+1
  2467     0CC6  0874               	movf	??__Umul8_16,w
  2468     0CC7  00A2               	movwf	__Umul8_16@word_mpld
  2469     0CC8  0875               	movf	??__Umul8_16+1,w
  2470     0CC9  00A3               	movwf	__Umul8_16@word_mpld+1
  2471     0CCA                     l2098:
  2472     0CCA  1C24               	btfss	__Umul8_16@multiplier,0
  2473     0CCB  2CCD               	goto	u2921
  2474     0CCC  2CCE               	goto	u2920
  2475     0CCD                     u2921:
  2476     0CCD  2CD4               	goto	l604
  2477     0CCE                     u2920:
  2478     0CCE                     l2100:
  2479     0CCE  0822               	movf	__Umul8_16@word_mpld,w
  2480     0CCF  07A0               	addwf	__Umul8_16@product,f
  2481     0CD0  1803               	skipnc
  2482     0CD1  0AA1               	incf	__Umul8_16@product+1,f
  2483     0CD2  0823               	movf	__Umul8_16@word_mpld+1,w
  2484     0CD3  07A1               	addwf	__Umul8_16@product+1,f
  2485     0CD4                     l604:
  2486     0CD4  3001               	movlw	1
  2487     0CD5                     u2935:
  2488     0CD5  1003               	clrc
  2489     0CD6  0DA2               	rlf	__Umul8_16@word_mpld,f
  2490     0CD7  0DA3               	rlf	__Umul8_16@word_mpld+1,f
  2491     0CD8  3EFF               	addlw	-1
  2492     0CD9  1D03               	skipz
  2493     0CDA  2CD5               	goto	u2935
  2494     0CDB  1003               	clrc
  2495     0CDC  0CA4               	rrf	__Umul8_16@multiplier,f
  2496     0CDD                     l2102:
  2497     0CDD  0824               	movf	__Umul8_16@multiplier,w
  2498     0CDE  1D03               	btfss	3,2
  2499     0CDF  2CE1               	goto	u2941
  2500     0CE0  2CE2               	goto	u2940
  2501     0CE1                     u2941:
  2502     0CE1  2CCA               	goto	l2098
  2503     0CE2                     u2940:
  2504     0CE2                     l2104:
  2505     0CE2  0821               	movf	__Umul8_16@product+1,w
  2506     0CE3  00F3               	movwf	?__Umul8_16+1
  2507     0CE4  0820               	movf	__Umul8_16@product,w
  2508     0CE5  00F2               	movwf	?__Umul8_16
  2509     0CE6                     l606:
  2510     0CE6  0008               	return
  2511     0CE7                     __end_of__Umul8_16:
  2512                           
  2513                           	psect	text7
  2514     05B2                     __ptext7:	
  2515 ;; *************** function ___fldiv *****************
  2516 ;; Defined at:
  2517 ;;		line 8 in file "C:\Program Files\Microchip\xc8\v2.45\pic\sources\c99\common\sprcdiv.c"
  2518 ;; Parameters:    Size  Location     Type
  2519 ;;  a               4   31[BANK0 ] unsigned int 
  2520 ;;  b               4   35[BANK0 ] unsigned int 
  2521 ;; Auto vars:     Size  Location     Type
  2522 ;;  grs             4   51[BANK0 ] unsigned long 
  2523 ;;  rem             4   44[BANK0 ] unsigned long 
  2524 ;;  new_exp         2   49[BANK0 ] short 
  2525 ;;  aexp            1   56[BANK0 ] unsigned char 
  2526 ;;  bexp            1   55[BANK0 ] unsigned char 
  2527 ;;  sign            1   48[BANK0 ] unsigned char 
  2528 ;; Return value:  Size  Location     Type
  2529 ;;                  4   31[BANK0 ] unsigned char 
  2530 ;; Registers used:
  2531 ;;		wreg, status,2, status,0, btemp+1
  2532 ;; Tracked objects:
  2533 ;;		On entry : 0/0
  2534 ;;		On exit  : 0/0
  2535 ;;		Unchanged: 0/0
  2536 ;; Data sizes:     COMMON   BANK0   BANK1   BANK3   BANK2
  2537 ;;      Params:         0       8       0       0       0
  2538 ;;      Locals:         0      13       0       0       0
  2539 ;;      Temps:          0       5       0       0       0
  2540 ;;      Totals:         0      26       0       0       0
  2541 ;;Total ram usage:       26 bytes
  2542 ;; Hardware stack levels used: 1
  2543 ;; Hardware stack levels required when called: 1
  2544 ;; This function calls:
  2545 ;;		Nothing
  2546 ;; This function is called by:
  2547 ;;		_calcular_temperatura
  2548 ;; This function uses a non-reentrant model
  2549 ;;
  2550                           
  2551     05B2                     ___fldiv:	
  2552                           ;psect for function ___fldiv
  2553                           
  2554     05B2                     l1590:	
  2555                           ;incstack = 0
  2556                           ; Regs used in ___fldiv: [wreg+status,2+status,0+btemp+1]
  2557                           
  2558     05B2  1283               	bcf	3,5	;RP0=0, select bank0
  2559     05B3  1303               	bcf	3,6	;RP1=0, select bank0
  2560     05B4  0846               	movf	___fldiv@b+3,w
  2561     05B5  3980               	andlw	128
  2562     05B6  00D0               	movwf	___fldiv@sign
  2563     05B7                     l1592:
  2564     05B7  0846               	movf	___fldiv@b+3,w
  2565     05B8  00C7               	movwf	??___fldiv
  2566     05B9  0747               	addwf	??___fldiv,w
  2567     05BA  00D7               	movwf	___fldiv@bexp
  2568     05BB                     l1594:
  2569     05BB  1FC5               	btfss	___fldiv@b+2,7
  2570     05BC  2DBE               	goto	u1961
  2571     05BD  2DBF               	goto	u1960
  2572     05BE                     u1961:
  2573     05BE  2DC0               	goto	l1598
  2574     05BF                     u1960:
  2575     05BF                     l1596:
  2576     05BF  1457               	bsf	___fldiv@bexp,0
  2577     05C0                     l1598:
  2578     05C0  0857               	movf	___fldiv@bexp,w
  2579     05C1  1903               	btfsc	3,2
  2580     05C2  2DC4               	goto	u1971
  2581     05C3  2DC5               	goto	u1970
  2582     05C4                     u1971:
  2583     05C4  2DD5               	goto	l1608
  2584     05C5                     u1970:
  2585     05C5                     l1600:
  2586     05C5  0A57               	incf	___fldiv@bexp,w
  2587     05C6  1D03               	btfss	3,2
  2588     05C7  2DC9               	goto	u1981
  2589     05C8  2DCA               	goto	u1980
  2590     05C9                     u1981:
  2591     05C9  2DD2               	goto	l1604
  2592     05CA                     u1980:
  2593     05CA                     l1602:
  2594     05CA  3000               	movlw	0
  2595     05CB  00C6               	movwf	___fldiv@b+3
  2596     05CC  3000               	movlw	0
  2597     05CD  00C5               	movwf	___fldiv@b+2
  2598     05CE  3000               	movlw	0
  2599     05CF  00C4               	movwf	___fldiv@b+1
  2600     05D0  3000               	movlw	0
  2601     05D1  00C3               	movwf	___fldiv@b
  2602     05D2                     l1604:
  2603     05D2  17C5               	bsf	___fldiv@b+2,7
  2604     05D3                     l1606:
  2605     05D3  01C6               	clrf	___fldiv@b+3
  2606     05D4  2DDD               	goto	l1610
  2607     05D5                     l1608:
  2608     05D5  3000               	movlw	0
  2609     05D6  00C6               	movwf	___fldiv@b+3
  2610     05D7  3000               	movlw	0
  2611     05D8  00C5               	movwf	___fldiv@b+2
  2612     05D9  3000               	movlw	0
  2613     05DA  00C4               	movwf	___fldiv@b+1
  2614     05DB  3000               	movlw	0
  2615     05DC  00C3               	movwf	___fldiv@b
  2616     05DD                     l1610:
  2617     05DD  0842               	movf	___fldiv@a+3,w
  2618     05DE  3980               	andlw	128
  2619     05DF  00FF               	movwf	btemp+1
  2620     05E0  087F               	movf	btemp+1,w
  2621     05E1  06D0               	xorwf	___fldiv@sign,f
  2622     05E2                     l1612:
  2623     05E2  0842               	movf	___fldiv@a+3,w
  2624     05E3  00C7               	movwf	??___fldiv
  2625     05E4  0747               	addwf	??___fldiv,w
  2626     05E5  00D8               	movwf	___fldiv@aexp
  2627     05E6                     l1614:
  2628     05E6  1FC1               	btfss	___fldiv@a+2,7
  2629     05E7  2DE9               	goto	u1991
  2630     05E8  2DEA               	goto	u1990
  2631     05E9                     u1991:
  2632     05E9  2DEB               	goto	l1618
  2633     05EA                     u1990:
  2634     05EA                     l1616:
  2635     05EA  1458               	bsf	___fldiv@aexp,0
  2636     05EB                     l1618:
  2637     05EB  0858               	movf	___fldiv@aexp,w
  2638     05EC  1903               	btfsc	3,2
  2639     05ED  2DEF               	goto	u2001
  2640     05EE  2DF0               	goto	u2000
  2641     05EF                     u2001:
  2642     05EF  2E00               	goto	l1628
  2643     05F0                     u2000:
  2644     05F0                     l1620:
  2645     05F0  0A58               	incf	___fldiv@aexp,w
  2646     05F1  1D03               	btfss	3,2
  2647     05F2  2DF4               	goto	u2011
  2648     05F3  2DF5               	goto	u2010
  2649     05F4                     u2011:
  2650     05F4  2DFD               	goto	l1624
  2651     05F5                     u2010:
  2652     05F5                     l1622:
  2653     05F5  3000               	movlw	0
  2654     05F6  00C2               	movwf	___fldiv@a+3
  2655     05F7  3000               	movlw	0
  2656     05F8  00C1               	movwf	___fldiv@a+2
  2657     05F9  3000               	movlw	0
  2658     05FA  00C0               	movwf	___fldiv@a+1
  2659     05FB  3000               	movlw	0
  2660     05FC  00BF               	movwf	___fldiv@a
  2661     05FD                     l1624:
  2662     05FD  17C1               	bsf	___fldiv@a+2,7
  2663     05FE                     l1626:
  2664     05FE  01C2               	clrf	___fldiv@a+3
  2665     05FF  2E08               	goto	l545
  2666     0600                     l1628:
  2667     0600  3000               	movlw	0
  2668     0601  00C2               	movwf	___fldiv@a+3
  2669     0602  3000               	movlw	0
  2670     0603  00C1               	movwf	___fldiv@a+2
  2671     0604  3000               	movlw	0
  2672     0605  00C0               	movwf	___fldiv@a+1
  2673     0606  3000               	movlw	0
  2674     0607  00BF               	movwf	___fldiv@a
  2675     0608                     l545:
  2676     0608  0842               	movf	___fldiv@a+3,w
  2677     0609  0441               	iorwf	___fldiv@a+2,w
  2678     060A  0440               	iorwf	___fldiv@a+1,w
  2679     060B  043F               	iorwf	___fldiv@a,w
  2680     060C  1D03               	skipz
  2681     060D  2E0F               	goto	u2021
  2682     060E  2E10               	goto	u2020
  2683     060F                     u2021:
  2684     060F  2E29               	goto	l1638
  2685     0610                     u2020:
  2686     0610                     l1630:
  2687     0610  3000               	movlw	0
  2688     0611  00C6               	movwf	___fldiv@b+3
  2689     0612  3000               	movlw	0
  2690     0613  00C5               	movwf	___fldiv@b+2
  2691     0614  3000               	movlw	0
  2692     0615  00C4               	movwf	___fldiv@b+1
  2693     0616  3000               	movlw	0
  2694     0617  00C3               	movwf	___fldiv@b
  2695     0618  3080               	movlw	128
  2696     0619  04C5               	iorwf	___fldiv@b+2,f
  2697     061A  307F               	movlw	127
  2698     061B  04C6               	iorwf	___fldiv@b+3,f
  2699     061C                     l1632:
  2700     061C  0850               	movf	___fldiv@sign,w
  2701     061D  00FF               	movwf	btemp+1
  2702     061E  087F               	movf	btemp+1,w
  2703     061F  04C6               	iorwf	___fldiv@b+3,f
  2704     0620                     l1634:
  2705     0620  0846               	movf	___fldiv@b+3,w
  2706     0621  00C2               	movwf	?___fldiv+3
  2707     0622  0845               	movf	___fldiv@b+2,w
  2708     0623  00C1               	movwf	?___fldiv+2
  2709     0624  0844               	movf	___fldiv@b+1,w
  2710     0625  00C0               	movwf	?___fldiv+1
  2711     0626  0843               	movf	___fldiv@b,w
  2712     0627  00BF               	movwf	?___fldiv
  2713     0628  2F80               	goto	l547
  2714     0629                     l1638:
  2715     0629  0857               	movf	___fldiv@bexp,w
  2716     062A  1D03               	btfss	3,2
  2717     062B  2E2D               	goto	u2031
  2718     062C  2E2E               	goto	u2030
  2719     062D                     u2031:
  2720     062D  2E37               	goto	l1644
  2721     062E                     u2030:
  2722     062E                     l1640:
  2723     062E  3000               	movlw	0
  2724     062F  00C2               	movwf	?___fldiv+3
  2725     0630  3000               	movlw	0
  2726     0631  00C1               	movwf	?___fldiv+2
  2727     0632  3000               	movlw	0
  2728     0633  00C0               	movwf	?___fldiv+1
  2729     0634  3000               	movlw	0
  2730     0635  00BF               	movwf	?___fldiv
  2731     0636  2F80               	goto	l547
  2732     0637                     l1644:
  2733     0637  0857               	movf	___fldiv@bexp,w
  2734     0638  00C7               	movwf	??___fldiv
  2735     0639  01C8               	clrf	??___fldiv+1
  2736     063A  0848               	movf	??___fldiv+1,w
  2737     063B  00CA               	movwf	??___fldiv+3
  2738     063C  0858               	movf	___fldiv@aexp,w
  2739     063D  0247               	subwf	??___fldiv,w
  2740     063E  00C9               	movwf	??___fldiv+2
  2741     063F  1C03               	skipc
  2742     0640  03CA               	decf	??___fldiv+3,f
  2743     0641  0849               	movf	??___fldiv+2,w
  2744     0642  3E7F               	addlw	127
  2745     0643  00D1               	movwf	___fldiv@new_exp
  2746     0644  084A               	movf	??___fldiv+3,w
  2747     0645  1803               	skipnc
  2748     0646  3E01               	addlw	1
  2749     0647  3E00               	addlw	0
  2750     0648  00D2               	movwf	___fldiv@new_exp+1
  2751     0649                     l1646:
  2752     0649  0846               	movf	___fldiv@b+3,w
  2753     064A  00CF               	movwf	___fldiv@rem+3
  2754     064B  0845               	movf	___fldiv@b+2,w
  2755     064C  00CE               	movwf	___fldiv@rem+2
  2756     064D  0844               	movf	___fldiv@b+1,w
  2757     064E  00CD               	movwf	___fldiv@rem+1
  2758     064F  0843               	movf	___fldiv@b,w
  2759     0650  00CC               	movwf	___fldiv@rem
  2760     0651                     l1648:
  2761     0651  3000               	movlw	0
  2762     0652  00C6               	movwf	___fldiv@b+3
  2763     0653  3000               	movlw	0
  2764     0654  00C5               	movwf	___fldiv@b+2
  2765     0655  3000               	movlw	0
  2766     0656  00C4               	movwf	___fldiv@b+1
  2767     0657  3000               	movlw	0
  2768     0658  00C3               	movwf	___fldiv@b
  2769     0659                     l1650:
  2770     0659  3000               	movlw	0
  2771     065A  00D6               	movwf	___fldiv@grs+3
  2772     065B  3000               	movlw	0
  2773     065C  00D5               	movwf	___fldiv@grs+2
  2774     065D  3000               	movlw	0
  2775     065E  00D4               	movwf	___fldiv@grs+1
  2776     065F  3000               	movlw	0
  2777     0660  00D3               	movwf	___fldiv@grs
  2778     0661                     l1652:
  2779     0661  01D8               	clrf	___fldiv@aexp
  2780     0662  2EAD               	goto	l1672
  2781     0663                     l1654:
  2782     0663  0858               	movf	___fldiv@aexp,w
  2783     0664  1903               	btfsc	3,2
  2784     0665  2E67               	goto	u2041
  2785     0666  2E68               	goto	u2040
  2786     0667                     u2041:
  2787     0667  2E88               	goto	l1664
  2788     0668                     u2040:
  2789     0668                     l1656:
  2790     0668  3001               	movlw	1
  2791     0669  00C7               	movwf	??___fldiv
  2792     066A                     u2055:
  2793     066A  1003               	clrc
  2794     066B  0DCC               	rlf	___fldiv@rem,f
  2795     066C  0DCD               	rlf	___fldiv@rem+1,f
  2796     066D  0DCE               	rlf	___fldiv@rem+2,f
  2797     066E  0DCF               	rlf	___fldiv@rem+3,f
  2798     066F  0BC7               	decfsz	??___fldiv,f
  2799     0670  2E6A               	goto	u2055
  2800     0671  3001               	movlw	1
  2801     0672  00C7               	movwf	??___fldiv
  2802     0673                     u2065:
  2803     0673  1003               	clrc
  2804     0674  0DC3               	rlf	___fldiv@b,f
  2805     0675  0DC4               	rlf	___fldiv@b+1,f
  2806     0676  0DC5               	rlf	___fldiv@b+2,f
  2807     0677  0DC6               	rlf	___fldiv@b+3,f
  2808     0678  0BC7               	decfsz	??___fldiv,f
  2809     0679  2E73               	goto	u2065
  2810     067A                     l1658:
  2811     067A  1FD6               	btfss	___fldiv@grs+3,7
  2812     067B  2E7D               	goto	u2071
  2813     067C  2E7E               	goto	u2070
  2814     067D                     u2071:
  2815     067D  2E7F               	goto	l1662
  2816     067E                     u2070:
  2817     067E                     l1660:
  2818     067E  1443               	bsf	___fldiv@b,0
  2819     067F                     l1662:
  2820     067F  3001               	movlw	1
  2821     0680  00C7               	movwf	??___fldiv
  2822     0681                     u2085:
  2823     0681  1003               	clrc
  2824     0682  0DD3               	rlf	___fldiv@grs,f
  2825     0683  0DD4               	rlf	___fldiv@grs+1,f
  2826     0684  0DD5               	rlf	___fldiv@grs+2,f
  2827     0685  0DD6               	rlf	___fldiv@grs+3,f
  2828     0686  0BC7               	decfsz	??___fldiv,f
  2829     0687  2E81               	goto	u2085
  2830     0688                     l1664:
  2831     0688  0842               	movf	___fldiv@a+3,w
  2832     0689  024F               	subwf	___fldiv@rem+3,w
  2833     068A  1D03               	skipz
  2834     068B  2E96               	goto	u2095
  2835     068C  0841               	movf	___fldiv@a+2,w
  2836     068D  024E               	subwf	___fldiv@rem+2,w
  2837     068E  1D03               	skipz
  2838     068F  2E96               	goto	u2095
  2839     0690  0840               	movf	___fldiv@a+1,w
  2840     0691  024D               	subwf	___fldiv@rem+1,w
  2841     0692  1D03               	skipz
  2842     0693  2E96               	goto	u2095
  2843     0694  083F               	movf	___fldiv@a,w
  2844     0695  024C               	subwf	___fldiv@rem,w
  2845     0696                     u2095:
  2846     0696  1C03               	skipc
  2847     0697  2E99               	goto	u2091
  2848     0698  2E9A               	goto	u2090
  2849     0699                     u2091:
  2850     0699  2EA9               	goto	l1670
  2851     069A                     u2090:
  2852     069A                     l1666:
  2853     069A  1756               	bsf	___fldiv@grs+3,6
  2854     069B                     l1668:
  2855     069B  083F               	movf	___fldiv@a,w
  2856     069C  02CC               	subwf	___fldiv@rem,f
  2857     069D  0840               	movf	___fldiv@a+1,w
  2858     069E  1C03               	skipc
  2859     069F  0F40               	incfsz	___fldiv@a+1,w
  2860     06A0  02CD               	subwf	___fldiv@rem+1,f
  2861     06A1  0841               	movf	___fldiv@a+2,w
  2862     06A2  1C03               	skipc
  2863     06A3  0F41               	incfsz	___fldiv@a+2,w
  2864     06A4  02CE               	subwf	___fldiv@rem+2,f
  2865     06A5  0842               	movf	___fldiv@a+3,w
  2866     06A6  1C03               	skipc
  2867     06A7  0F42               	incfsz	___fldiv@a+3,w
  2868     06A8  02CF               	subwf	___fldiv@rem+3,f
  2869     06A9                     l1670:
  2870     06A9  3001               	movlw	1
  2871     06AA  00FF               	movwf	btemp+1
  2872     06AB  087F               	movf	btemp+1,w
  2873     06AC  07D8               	addwf	___fldiv@aexp,f
  2874     06AD                     l1672:
  2875     06AD  301A               	movlw	26
  2876     06AE  0258               	subwf	___fldiv@aexp,w
  2877     06AF  1C03               	skipc
  2878     06B0  2EB2               	goto	u2101
  2879     06B1  2EB3               	goto	u2100
  2880     06B2                     u2101:
  2881     06B2  2E63               	goto	l1654
  2882     06B3                     u2100:
  2883     06B3                     l1674:
  2884     06B3  084F               	movf	___fldiv@rem+3,w
  2885     06B4  044E               	iorwf	___fldiv@rem+2,w
  2886     06B5  044D               	iorwf	___fldiv@rem+1,w
  2887     06B6  044C               	iorwf	___fldiv@rem,w
  2888     06B7  1903               	skipnz
  2889     06B8  2EBA               	goto	u2111
  2890     06B9  2EBB               	goto	u2110
  2891     06BA                     u2111:
  2892     06BA  2EDA               	goto	l1688
  2893     06BB                     u2110:
  2894     06BB                     l1676:
  2895     06BB  1453               	bsf	___fldiv@grs,0
  2896     06BC  2EDA               	goto	l1688
  2897     06BD                     l1678:
  2898     06BD  3001               	movlw	1
  2899     06BE  00C7               	movwf	??___fldiv
  2900     06BF                     u2125:
  2901     06BF  1003               	clrc
  2902     06C0  0DC3               	rlf	___fldiv@b,f
  2903     06C1  0DC4               	rlf	___fldiv@b+1,f
  2904     06C2  0DC5               	rlf	___fldiv@b+2,f
  2905     06C3  0DC6               	rlf	___fldiv@b+3,f
  2906     06C4  0BC7               	decfsz	??___fldiv,f
  2907     06C5  2EBF               	goto	u2125
  2908     06C6                     l1680:
  2909     06C6  1FD6               	btfss	___fldiv@grs+3,7
  2910     06C7  2EC9               	goto	u2131
  2911     06C8  2ECA               	goto	u2130
  2912     06C9                     u2131:
  2913     06C9  2ECB               	goto	l1684
  2914     06CA                     u2130:
  2915     06CA                     l1682:
  2916     06CA  1443               	bsf	___fldiv@b,0
  2917     06CB                     l1684:
  2918     06CB  3001               	movlw	1
  2919     06CC  00C7               	movwf	??___fldiv
  2920     06CD                     u2145:
  2921     06CD  1003               	clrc
  2922     06CE  0DD3               	rlf	___fldiv@grs,f
  2923     06CF  0DD4               	rlf	___fldiv@grs+1,f
  2924     06D0  0DD5               	rlf	___fldiv@grs+2,f
  2925     06D1  0DD6               	rlf	___fldiv@grs+3,f
  2926     06D2  0BC7               	decfsz	??___fldiv,f
  2927     06D3  2ECD               	goto	u2145
  2928     06D4                     l1686:
  2929     06D4  30FF               	movlw	255
  2930     06D5  07D1               	addwf	___fldiv@new_exp,f
  2931     06D6  1803               	skipnc
  2932     06D7  0AD2               	incf	___fldiv@new_exp+1,f
  2933     06D8  30FF               	movlw	255
  2934     06D9  07D2               	addwf	___fldiv@new_exp+1,f
  2935     06DA                     l1688:
  2936     06DA  1FC5               	btfss	___fldiv@b+2,7
  2937     06DB  2EDD               	goto	u2151
  2938     06DC  2EDE               	goto	u2150
  2939     06DD                     u2151:
  2940     06DD  2EBD               	goto	l1678
  2941     06DE                     u2150:
  2942     06DE                     l1690:
  2943     06DE  01D8               	clrf	___fldiv@aexp
  2944     06DF                     l1692:
  2945     06DF  1FD6               	btfss	___fldiv@grs+3,7
  2946     06E0  2EE2               	goto	u2161
  2947     06E1  2EE3               	goto	u2160
  2948     06E2                     u2161:
  2949     06E2  2EFF               	goto	l1700
  2950     06E3                     u2160:
  2951     06E3                     l1694:
  2952     06E3  30FF               	movlw	255
  2953     06E4  0553               	andwf	___fldiv@grs,w
  2954     06E5  00C7               	movwf	??___fldiv
  2955     06E6  30FF               	movlw	255
  2956     06E7  0554               	andwf	___fldiv@grs+1,w
  2957     06E8  00C8               	movwf	??___fldiv+1
  2958     06E9  30FF               	movlw	255
  2959     06EA  0555               	andwf	___fldiv@grs+2,w
  2960     06EB  00C9               	movwf	??___fldiv+2
  2961     06EC  307F               	movlw	127
  2962     06ED  0556               	andwf	___fldiv@grs+3,w
  2963     06EE  00CA               	movwf	??___fldiv+3
  2964     06EF  084A               	movf	??___fldiv+3,w
  2965     06F0  0449               	iorwf	??___fldiv+2,w
  2966     06F1  0448               	iorwf	??___fldiv+1,w
  2967     06F2  0447               	iorwf	??___fldiv,w
  2968     06F3  1903               	skipnz
  2969     06F4  2EF6               	goto	u2171
  2970     06F5  2EF7               	goto	u2170
  2971     06F6                     u2171:
  2972     06F6  2EFA               	goto	l561
  2973     06F7                     u2170:
  2974     06F7                     l1696:
  2975     06F7  01D8               	clrf	___fldiv@aexp
  2976     06F8  0AD8               	incf	___fldiv@aexp,f
  2977     06F9  2EFF               	goto	l1700
  2978     06FA                     l561:
  2979     06FA  1C43               	btfss	___fldiv@b,0
  2980     06FB  2EFD               	goto	u2181
  2981     06FC  2EFE               	goto	u2180
  2982     06FD                     u2181:
  2983     06FD  2EFF               	goto	l1700
  2984     06FE                     u2180:
  2985     06FE  2EF7               	goto	l1696
  2986     06FF                     l1700:
  2987     06FF  0858               	movf	___fldiv@aexp,w
  2988     0700  1903               	btfsc	3,2
  2989     0701  2F03               	goto	u2191
  2990     0702  2F04               	goto	u2190
  2991     0703                     u2191:
  2992     0703  2F35               	goto	l1710
  2993     0704                     u2190:
  2994     0704                     l1702:
  2995     0704  3001               	movlw	1
  2996     0705  07C3               	addwf	___fldiv@b,f
  2997     0706  3000               	movlw	0
  2998     0707  1803               	skipnc
  2999     0708  3001               	movlw	1
  3000     0709  07C4               	addwf	___fldiv@b+1,f
  3001     070A  3000               	movlw	0
  3002     070B  1803               	skipnc
  3003     070C  3001               	movlw	1
  3004     070D  07C5               	addwf	___fldiv@b+2,f
  3005     070E  3000               	movlw	0
  3006     070F  1803               	skipnc
  3007     0710  3001               	movlw	1
  3008     0711  07C6               	addwf	___fldiv@b+3,f
  3009     0712                     l1704:
  3010     0712  1C46               	btfss	___fldiv@b+3,0
  3011     0713  2F15               	goto	u2201
  3012     0714  2F16               	goto	u2200
  3013     0715                     u2201:
  3014     0715  2F35               	goto	l1710
  3015     0716                     u2200:
  3016     0716                     l1706:
  3017     0716  0843               	movf	___fldiv@b,w
  3018     0717  00C7               	movwf	??___fldiv
  3019     0718  0844               	movf	___fldiv@b+1,w
  3020     0719  00C8               	movwf	??___fldiv+1
  3021     071A  0845               	movf	___fldiv@b+2,w
  3022     071B  00C9               	movwf	??___fldiv+2
  3023     071C  0846               	movf	___fldiv@b+3,w
  3024     071D  00CA               	movwf	??___fldiv+3
  3025     071E  3001               	movlw	1
  3026     071F  00CB               	movwf	??___fldiv+4
  3027     0720                     u2215:
  3028     0720  0D4A               	rlf	??___fldiv+3,w
  3029     0721  0CCA               	rrf	??___fldiv+3,f
  3030     0722  0CC9               	rrf	??___fldiv+2,f
  3031     0723  0CC8               	rrf	??___fldiv+1,f
  3032     0724  0CC7               	rrf	??___fldiv,f
  3033     0725                     u2210:
  3034     0725  0BCB               	decfsz	??___fldiv+4,f
  3035     0726  2F20               	goto	u2215
  3036     0727  084A               	movf	??___fldiv+3,w
  3037     0728  00C6               	movwf	___fldiv@b+3
  3038     0729  0849               	movf	??___fldiv+2,w
  3039     072A  00C5               	movwf	___fldiv@b+2
  3040     072B  0848               	movf	??___fldiv+1,w
  3041     072C  00C4               	movwf	___fldiv@b+1
  3042     072D  0847               	movf	??___fldiv,w
  3043     072E  00C3               	movwf	___fldiv@b
  3044     072F                     l1708:
  3045     072F  3001               	movlw	1
  3046     0730  07D1               	addwf	___fldiv@new_exp,f
  3047     0731  1803               	skipnc
  3048     0732  0AD2               	incf	___fldiv@new_exp+1,f
  3049     0733  3000               	movlw	0
  3050     0734  07D2               	addwf	___fldiv@new_exp+1,f
  3051     0735                     l1710:
  3052     0735  0852               	movf	___fldiv@new_exp+1,w
  3053     0736  3A80               	xorlw	128
  3054     0737  00FF               	movwf	btemp+1
  3055     0738  3080               	movlw	128
  3056     0739  027F               	subwf	btemp+1,w
  3057     073A  1D03               	skipz
  3058     073B  2F3E               	goto	u2225
  3059     073C  30FF               	movlw	255
  3060     073D  0251               	subwf	___fldiv@new_exp,w
  3061     073E                     u2225:
  3062     073E  1C03               	skipc
  3063     073F  2F41               	goto	u2221
  3064     0740  2F42               	goto	u2220
  3065     0741                     u2221:
  3066     0741  2F50               	goto	l1714
  3067     0742                     u2220:
  3068     0742                     l1712:
  3069     0742  30FF               	movlw	255
  3070     0743  1283               	bcf	3,5	;RP0=0, select bank0
  3071     0744  1303               	bcf	3,6	;RP1=0, select bank0
  3072     0745  00D1               	movwf	___fldiv@new_exp
  3073     0746  3000               	movlw	0
  3074     0747  00D2               	movwf	___fldiv@new_exp+1
  3075     0748  3000               	movlw	0
  3076     0749  00C6               	movwf	___fldiv@b+3
  3077     074A  3000               	movlw	0
  3078     074B  00C5               	movwf	___fldiv@b+2
  3079     074C  3000               	movlw	0
  3080     074D  00C4               	movwf	___fldiv@b+1
  3081     074E  3000               	movlw	0
  3082     074F  00C3               	movwf	___fldiv@b
  3083     0750                     l1714:
  3084     0750  1283               	bcf	3,5	;RP0=0, select bank0
  3085     0751  1303               	bcf	3,6	;RP1=0, select bank0
  3086     0752  0852               	movf	___fldiv@new_exp+1,w
  3087     0753  3A80               	xorlw	128
  3088     0754  00FF               	movwf	btemp+1
  3089     0755  3080               	movlw	128
  3090     0756  027F               	subwf	btemp+1,w
  3091     0757  1D03               	skipz
  3092     0758  2F5B               	goto	u2235
  3093     0759  3001               	movlw	1
  3094     075A  0251               	subwf	___fldiv@new_exp,w
  3095     075B                     u2235:
  3096     075B  1803               	skipnc
  3097     075C  2F5E               	goto	u2231
  3098     075D  2F5F               	goto	u2230
  3099     075E                     u2231:
  3100     075E  2F6C               	goto	l567
  3101     075F                     u2230:
  3102     075F                     l1716:
  3103     075F  1283               	bcf	3,5	;RP0=0, select bank0
  3104     0760  1303               	bcf	3,6	;RP1=0, select bank0
  3105     0761  01D1               	clrf	___fldiv@new_exp
  3106     0762  01D2               	clrf	___fldiv@new_exp+1
  3107     0763                     l1718:
  3108     0763  3000               	movlw	0
  3109     0764  00C6               	movwf	___fldiv@b+3
  3110     0765  3000               	movlw	0
  3111     0766  00C5               	movwf	___fldiv@b+2
  3112     0767  3000               	movlw	0
  3113     0768  00C4               	movwf	___fldiv@b+1
  3114     0769  3000               	movlw	0
  3115     076A  00C3               	movwf	___fldiv@b
  3116     076B                     l1720:
  3117     076B  01D0               	clrf	___fldiv@sign
  3118     076C                     l567:
  3119     076C  1283               	bcf	3,5	;RP0=0, select bank0
  3120     076D  1303               	bcf	3,6	;RP1=0, select bank0
  3121     076E  0851               	movf	___fldiv@new_exp,w
  3122     076F  00D7               	movwf	___fldiv@bexp
  3123     0770                     l1722:
  3124     0770  1C57               	btfss	___fldiv@bexp,0
  3125     0771  2F73               	goto	u2241
  3126     0772  2F74               	goto	u2240
  3127     0773                     u2241:
  3128     0773  2F76               	goto	l1726
  3129     0774                     u2240:
  3130     0774                     l1724:
  3131     0774  17C5               	bsf	___fldiv@b+2,7
  3132     0775  2F7A               	goto	l1728
  3133     0776                     l1726:
  3134     0776  307F               	movlw	127
  3135     0777  00FF               	movwf	btemp+1
  3136     0778  087F               	movf	btemp+1,w
  3137     0779  05C5               	andwf	___fldiv@b+2,f
  3138     077A                     l1728:
  3139     077A  0857               	movf	___fldiv@bexp,w
  3140     077B  00C7               	movwf	??___fldiv
  3141     077C  1003               	clrc
  3142     077D  0C47               	rrf	??___fldiv,w
  3143     077E  00C6               	movwf	___fldiv@b+3
  3144     077F  2E1C               	goto	l1632
  3145     0780                     l547:
  3146     0780  0008               	return
  3147     0781                     __end_of___fldiv:
  3148                           
  3149                           	psect	text8
  3150     0C7A                     __ptext8:	
  3151 ;; *************** function _aumentar *****************
  3152 ;; Defined at:
  3153 ;;		line 262 in file "main.c"
  3154 ;; Parameters:    Size  Location     Type
  3155 ;;		None
  3156 ;; Auto vars:     Size  Location     Type
  3157 ;;		None
  3158 ;; Return value:  Size  Location     Type
  3159 ;;                  1    wreg      void 
  3160 ;; Registers used:
  3161 ;;		wreg, status,2, status,0, btemp+1, pclath, cstack
  3162 ;; Tracked objects:
  3163 ;;		On entry : 0/0
  3164 ;;		On exit  : 0/0
  3165 ;;		Unchanged: 0/0
  3166 ;; Data sizes:     COMMON   BANK0   BANK1   BANK3   BANK2
  3167 ;;      Params:         0       0       0       0       0
  3168 ;;      Locals:         0       0       0       0       0
  3169 ;;      Temps:          0       0       0       0       0
  3170 ;;      Totals:         0       0       0       0       0
  3171 ;;Total ram usage:        0 bytes
  3172 ;; Hardware stack levels used: 1
  3173 ;; Hardware stack levels required when called: 2
  3174 ;; This function calls:
  3175 ;;		_temporizer
  3176 ;; This function is called by:
  3177 ;;		_main
  3178 ;; This function uses a non-reentrant model
  3179 ;;
  3180                           
  3181     0C7A                     _aumentar:	
  3182                           ;psect for function _aumentar
  3183                           
  3184     0C7A                     l1884:	
  3185                           ;incstack = 0
  3186                           ; Regs used in _aumentar: [wreg+status,2+status,0+btemp+1+pclath+cstack]
  3187                           
  3188                           
  3189                           ;main.c: 263:     if(PORTC == 9){
  3190     0C7A  3009               	movlw	9
  3191     0C7B  1283               	bcf	3,5	;RP0=0, select bank0
  3192     0C7C  1303               	bcf	3,6	;RP1=0, select bank0
  3193     0C7D  0607               	xorwf	7,w	;volatile
  3194     0C7E  1D03               	btfss	3,2
  3195     0C7F  2C81               	goto	u2621
  3196     0C80  2C82               	goto	u2620
  3197     0C81                     u2621:
  3198     0C81  2C90               	goto	l1894
  3199     0C82                     u2620:
  3200     0C82                     l1886:
  3201                           
  3202                           ;main.c: 264:         PORTC = 0;
  3203     0C82  0187               	clrf	7	;volatile
  3204     0C83                     l1888:
  3205                           
  3206                           ;main.c: 266:          if(PORTB == 9){
  3207     0C83  3009               	movlw	9
  3208     0C84  0606               	xorwf	6,w	;volatile
  3209     0C85  1D03               	btfss	3,2
  3210     0C86  2C88               	goto	u2631
  3211     0C87  2C89               	goto	u2630
  3212     0C88                     u2631:
  3213     0C88  2C8B               	goto	l1892
  3214     0C89                     u2630:
  3215     0C89                     l1890:
  3216                           
  3217                           ;main.c: 267:              PORTB = 0;
  3218     0C89  0186               	clrf	6	;volatile
  3219                           
  3220                           ;main.c: 268:          }
  3221     0C8A  2C94               	goto	l1896
  3222     0C8B                     l1892:
  3223                           
  3224                           ;main.c: 270:       PORTB++;
  3225     0C8B  3001               	movlw	1
  3226     0C8C  00FF               	movwf	btemp+1
  3227     0C8D  087F               	movf	btemp+1,w
  3228     0C8E  0786               	addwf	6,f	;volatile
  3229     0C8F  2C94               	goto	l1896
  3230     0C90                     l1894:
  3231                           
  3232                           ;main.c: 277:     PORTC++;
  3233     0C90  3001               	movlw	1
  3234     0C91  00FF               	movwf	btemp+1
  3235     0C92  087F               	movf	btemp+1,w
  3236     0C93  0787               	addwf	7,f	;volatile
  3237     0C94                     l1896:
  3238                           
  3239                           ;main.c: 279:     temporizer();
  3240     0C94  120A  158A  2458  120A  158A  	fcall	_temporizer
  3241     0C99                     l86:
  3242     0C99  0008               	return
  3243     0C9A                     __end_of_aumentar:
  3244                           
  3245                           	psect	text9
  3246     0C58                     __ptext9:	
  3247 ;; *************** function _temporizer *****************
  3248 ;; Defined at:
  3249 ;;		line 303 in file "main.c"
  3250 ;; Parameters:    Size  Location     Type
  3251 ;;		None
  3252 ;; Auto vars:     Size  Location     Type
  3253 ;;		None
  3254 ;; Return value:  Size  Location     Type
  3255 ;;                  1    wreg      void 
  3256 ;; Registers used:
  3257 ;;		wreg
  3258 ;; Tracked objects:
  3259 ;;		On entry : 0/0
  3260 ;;		On exit  : 0/0
  3261 ;;		Unchanged: 0/0
  3262 ;; Data sizes:     COMMON   BANK0   BANK1   BANK3   BANK2
  3263 ;;      Params:         0       0       0       0       0
  3264 ;;      Locals:         0       0       0       0       0
  3265 ;;      Temps:          2       0       0       0       0
  3266 ;;      Totals:         2       0       0       0       0
  3267 ;;Total ram usage:        2 bytes
  3268 ;; Hardware stack levels used: 1
  3269 ;; Hardware stack levels required when called: 1
  3270 ;; This function calls:
  3271 ;;		Nothing
  3272 ;; This function is called by:
  3273 ;;		_main
  3274 ;;		_aumentar
  3275 ;;		_diminuir
  3276 ;; This function uses a non-reentrant model
  3277 ;;
  3278                           
  3279     0C58                     _temporizer:	
  3280                           ;psect for function _temporizer
  3281                           
  3282     0C58                     l1388:	
  3283                           ;incstack = 0
  3284                           ; Regs used in _temporizer: [wreg]
  3285                           
  3286                           
  3287                           ;main.c: 307:   _delay((unsigned long)((100)*(4000000/4000.0)));
  3288     0C58  3082               	movlw	130
  3289     0C59  00F3               	movwf	??_temporizer+1
  3290     0C5A  30DD               	movlw	221
  3291     0C5B  00F2               	movwf	??_temporizer
  3292     0C5C                     u3387:
  3293     0C5C  0BF2               	decfsz	??_temporizer,f
  3294     0C5D  2C5C               	goto	u3387
  3295     0C5E  0BF3               	decfsz	??_temporizer+1,f
  3296     0C5F  2C5C               	goto	u3387
  3297     0C60  2C61               	nop2
  3298     0C61                     l96:
  3299     0C61  0008               	return
  3300     0C62                     __end_of_temporizer:
  3301                           
  3302                           	psect	text10
  3303     0D8B                     __ptext10:	
  3304 ;; *************** function ___xxtofl *****************
  3305 ;; Defined at:
  3306 ;;		line 10 in file "C:\Program Files\Microchip\xc8\v2.45\pic\sources\c99\common\xxtofl.c"
  3307 ;; Parameters:    Size  Location     Type
  3308 ;;  sign            1    wreg     unsigned char 
  3309 ;;  val             4    2[COMMON] long 
  3310 ;; Auto vars:     Size  Location     Type
  3311 ;;  sign            1    0[BANK0 ] unsigned char 
  3312 ;;  arg             4    2[BANK0 ] unsigned long 
  3313 ;;  exp             1    1[BANK0 ] unsigned char 
  3314 ;; Return value:  Size  Location     Type
  3315 ;;                  4    2[COMMON] unsigned char 
  3316 ;; Registers used:
  3317 ;;		wreg, status,2, status,0, btemp+1
  3318 ;; Tracked objects:
  3319 ;;		On entry : 0/0
  3320 ;;		On exit  : 0/0
  3321 ;;		Unchanged: 0/0
  3322 ;; Data sizes:     COMMON   BANK0   BANK1   BANK3   BANK2
  3323 ;;      Params:         4       0       0       0       0
  3324 ;;      Locals:         0       6       0       0       0
  3325 ;;      Temps:          4       0       0       0       0
  3326 ;;      Totals:         8       6       0       0       0
  3327 ;;Total ram usage:       14 bytes
  3328 ;; Hardware stack levels used: 1
  3329 ;; Hardware stack levels required when called: 1
  3330 ;; This function calls:
  3331 ;;		Nothing
  3332 ;; This function is called by:
  3333 ;;		_main
  3334 ;; This function uses a non-reentrant model
  3335 ;;
  3336                           
  3337     0D8B                     ___xxtofl:	
  3338                           ;psect for function ___xxtofl
  3339                           
  3340                           
  3341                           ;incstack = 0
  3342                           ; Regs used in ___xxtofl: [wreg+status,2+status,0+btemp+1]
  3343                           ;___xxtofl@sign stored from wreg
  3344     0D8B  1283               	bcf	3,5	;RP0=0, select bank0
  3345     0D8C  1303               	bcf	3,6	;RP1=0, select bank0
  3346     0D8D  00A0               	movwf	___xxtofl@sign
  3347     0D8E                     l1942:
  3348     0D8E  0820               	movf	___xxtofl@sign,w
  3349     0D8F  1903               	btfsc	3,2
  3350     0D90  2D92               	goto	u2731
  3351     0D91  2D93               	goto	u2730
  3352     0D92                     u2731:
  3353     0D92  2DA7               	goto	l1948
  3354     0D93                     u2730:
  3355     0D93                     l1944:
  3356     0D93  1FF5               	btfss	___xxtofl@val+3,7
  3357     0D94  2D96               	goto	u2741
  3358     0D95  2D97               	goto	u2740
  3359     0D96                     u2741:
  3360     0D96  2DA7               	goto	l1948
  3361     0D97                     u2740:
  3362     0D97                     l1946:
  3363     0D97  0972               	comf	___xxtofl@val,w
  3364     0D98  00A2               	movwf	___xxtofl@arg
  3365     0D99  0973               	comf	___xxtofl@val+1,w
  3366     0D9A  00A3               	movwf	___xxtofl@arg+1
  3367     0D9B  0974               	comf	___xxtofl@val+2,w
  3368     0D9C  00A4               	movwf	___xxtofl@arg+2
  3369     0D9D  0975               	comf	___xxtofl@val+3,w
  3370     0D9E  00A5               	movwf	___xxtofl@arg+3
  3371     0D9F  0AA2               	incf	___xxtofl@arg,f
  3372     0DA0  1903               	skipnz
  3373     0DA1  0AA3               	incf	___xxtofl@arg+1,f
  3374     0DA2  1903               	skipnz
  3375     0DA3  0AA4               	incf	___xxtofl@arg+2,f
  3376     0DA4  1903               	skipnz
  3377     0DA5  0AA5               	incf	___xxtofl@arg+3,f
  3378     0DA6  2DAF               	goto	l629
  3379     0DA7                     l1948:
  3380     0DA7  0875               	movf	___xxtofl@val+3,w
  3381     0DA8  00A5               	movwf	___xxtofl@arg+3
  3382     0DA9  0874               	movf	___xxtofl@val+2,w
  3383     0DAA  00A4               	movwf	___xxtofl@arg+2
  3384     0DAB  0873               	movf	___xxtofl@val+1,w
  3385     0DAC  00A3               	movwf	___xxtofl@arg+1
  3386     0DAD  0872               	movf	___xxtofl@val,w
  3387     0DAE  00A2               	movwf	___xxtofl@arg
  3388     0DAF                     l629:
  3389     0DAF  0875               	movf	___xxtofl@val+3,w
  3390     0DB0  0474               	iorwf	___xxtofl@val+2,w
  3391     0DB1  0473               	iorwf	___xxtofl@val+1,w
  3392     0DB2  0472               	iorwf	___xxtofl@val,w
  3393     0DB3  1D03               	skipz
  3394     0DB4  2DB6               	goto	u2751
  3395     0DB5  2DB7               	goto	u2750
  3396     0DB6                     u2751:
  3397     0DB6  2DC0               	goto	l1954
  3398     0DB7                     u2750:
  3399     0DB7                     l1950:
  3400     0DB7  3000               	movlw	0
  3401     0DB8  00F5               	movwf	?___xxtofl+3
  3402     0DB9  3000               	movlw	0
  3403     0DBA  00F4               	movwf	?___xxtofl+2
  3404     0DBB  3000               	movlw	0
  3405     0DBC  00F3               	movwf	?___xxtofl+1
  3406     0DBD  3000               	movlw	0
  3407     0DBE  00F2               	movwf	?___xxtofl
  3408     0DBF  2E44               	goto	l631
  3409     0DC0                     l1954:
  3410     0DC0  3096               	movlw	150
  3411     0DC1  00A1               	movwf	___xxtofl@exp
  3412     0DC2  2DD0               	goto	l1960
  3413     0DC3                     l1956:
  3414     0DC3  3001               	movlw	1
  3415     0DC4  00FF               	movwf	btemp+1
  3416     0DC5  087F               	movf	btemp+1,w
  3417     0DC6  07A1               	addwf	___xxtofl@exp,f
  3418     0DC7                     l1958:
  3419     0DC7  3001               	movlw	1
  3420     0DC8                     u2765:
  3421     0DC8  1003               	clrc
  3422     0DC9  0CA5               	rrf	___xxtofl@arg+3,f
  3423     0DCA  0CA4               	rrf	___xxtofl@arg+2,f
  3424     0DCB  0CA3               	rrf	___xxtofl@arg+1,f
  3425     0DCC  0CA2               	rrf	___xxtofl@arg,f
  3426     0DCD  3EFF               	addlw	-1
  3427     0DCE  1D03               	skipz
  3428     0DCF  2DC8               	goto	u2765
  3429     0DD0                     l1960:
  3430     0DD0  30FE               	movlw	254
  3431     0DD1  0525               	andwf	___xxtofl@arg+3,w
  3432     0DD2  1D03               	btfss	3,2
  3433     0DD3  2DD5               	goto	u2771
  3434     0DD4  2DD6               	goto	u2770
  3435     0DD5                     u2771:
  3436     0DD5  2DC3               	goto	l1956
  3437     0DD6                     u2770:
  3438     0DD6  2DF2               	goto	l1968
  3439     0DD7                     l1962:
  3440     0DD7  3001               	movlw	1
  3441     0DD8  00FF               	movwf	btemp+1
  3442     0DD9  087F               	movf	btemp+1,w
  3443     0DDA  07A1               	addwf	___xxtofl@exp,f
  3444     0DDB                     l1964:
  3445     0DDB  3001               	movlw	1
  3446     0DDC  07A2               	addwf	___xxtofl@arg,f
  3447     0DDD  3000               	movlw	0
  3448     0DDE  1803               	skipnc
  3449     0DDF  3001               	movlw	1
  3450     0DE0  07A3               	addwf	___xxtofl@arg+1,f
  3451     0DE1  3000               	movlw	0
  3452     0DE2  1803               	skipnc
  3453     0DE3  3001               	movlw	1
  3454     0DE4  07A4               	addwf	___xxtofl@arg+2,f
  3455     0DE5  3000               	movlw	0
  3456     0DE6  1803               	skipnc
  3457     0DE7  3001               	movlw	1
  3458     0DE8  07A5               	addwf	___xxtofl@arg+3,f
  3459     0DE9                     l1966:
  3460     0DE9  3001               	movlw	1
  3461     0DEA                     u2785:
  3462     0DEA  1003               	clrc
  3463     0DEB  0CA5               	rrf	___xxtofl@arg+3,f
  3464     0DEC  0CA4               	rrf	___xxtofl@arg+2,f
  3465     0DED  0CA3               	rrf	___xxtofl@arg+1,f
  3466     0DEE  0CA2               	rrf	___xxtofl@arg,f
  3467     0DEF  3EFF               	addlw	-1
  3468     0DF0  1D03               	skipz
  3469     0DF1  2DEA               	goto	u2785
  3470     0DF2                     l1968:
  3471     0DF2  30FF               	movlw	255
  3472     0DF3  0525               	andwf	___xxtofl@arg+3,w
  3473     0DF4  1D03               	btfss	3,2
  3474     0DF5  2DF7               	goto	u2791
  3475     0DF6  2DF8               	goto	u2790
  3476     0DF7                     u2791:
  3477     0DF7  2DD7               	goto	l1962
  3478     0DF8                     u2790:
  3479     0DF8  2E04               	goto	l1972
  3480     0DF9                     l1970:
  3481     0DF9  3001               	movlw	1
  3482     0DFA  02A1               	subwf	___xxtofl@exp,f
  3483     0DFB  3001               	movlw	1
  3484     0DFC  00F6               	movwf	??___xxtofl
  3485     0DFD                     u2805:
  3486     0DFD  1003               	clrc
  3487     0DFE  0DA2               	rlf	___xxtofl@arg,f
  3488     0DFF  0DA3               	rlf	___xxtofl@arg+1,f
  3489     0E00  0DA4               	rlf	___xxtofl@arg+2,f
  3490     0E01  0DA5               	rlf	___xxtofl@arg+3,f
  3491     0E02  0BF6               	decfsz	??___xxtofl,f
  3492     0E03  2DFD               	goto	u2805
  3493     0E04                     l1972:
  3494     0E04  1BA4               	btfsc	___xxtofl@arg+2,7
  3495     0E05  2E07               	goto	u2811
  3496     0E06  2E08               	goto	u2810
  3497     0E07                     u2811:
  3498     0E07  2E0E               	goto	l642
  3499     0E08                     u2810:
  3500     0E08                     l1974:
  3501     0E08  3002               	movlw	2
  3502     0E09  0221               	subwf	___xxtofl@exp,w
  3503     0E0A  1803               	skipnc
  3504     0E0B  2E0D               	goto	u2821
  3505     0E0C  2E0E               	goto	u2820
  3506     0E0D                     u2821:
  3507     0E0D  2DF9               	goto	l1970
  3508     0E0E                     u2820:
  3509     0E0E                     l642:
  3510     0E0E  1821               	btfsc	___xxtofl@exp,0
  3511     0E0F  2E11               	goto	u2831
  3512     0E10  2E12               	goto	u2830
  3513     0E11                     u2831:
  3514     0E11  2E1A               	goto	l643
  3515     0E12                     u2830:
  3516     0E12                     l1976:
  3517     0E12  30FF               	movlw	255
  3518     0E13  05A2               	andwf	___xxtofl@arg,f
  3519     0E14  30FF               	movlw	255
  3520     0E15  05A3               	andwf	___xxtofl@arg+1,f
  3521     0E16  307F               	movlw	127
  3522     0E17  05A4               	andwf	___xxtofl@arg+2,f
  3523     0E18  30FF               	movlw	255
  3524     0E19  05A5               	andwf	___xxtofl@arg+3,f
  3525     0E1A                     l643:
  3526     0E1A  1003               	clrc
  3527     0E1B  0CA1               	rrf	___xxtofl@exp,f
  3528     0E1C                     l1978:
  3529     0E1C  0821               	movf	___xxtofl@exp,w
  3530     0E1D  00F6               	movwf	??___xxtofl
  3531     0E1E  01F7               	clrf	??___xxtofl+1
  3532     0E1F  01F8               	clrf	??___xxtofl+2
  3533     0E20  01F9               	clrf	??___xxtofl+3
  3534     0E21  3018               	movlw	24
  3535     0E22                     u2845:
  3536     0E22  1003               	clrc
  3537     0E23  0DF6               	rlf	??___xxtofl,f
  3538     0E24  0DF7               	rlf	??___xxtofl+1,f
  3539     0E25  0DF8               	rlf	??___xxtofl+2,f
  3540     0E26  0DF9               	rlf	??___xxtofl+3,f
  3541     0E27                     u2840:
  3542     0E27  3EFF               	addlw	-1
  3543     0E28  1D03               	skipz
  3544     0E29  2E22               	goto	u2845
  3545     0E2A  0876               	movf	??___xxtofl,w
  3546     0E2B  04A2               	iorwf	___xxtofl@arg,f
  3547     0E2C  0877               	movf	??___xxtofl+1,w
  3548     0E2D  04A3               	iorwf	___xxtofl@arg+1,f
  3549     0E2E  0878               	movf	??___xxtofl+2,w
  3550     0E2F  04A4               	iorwf	___xxtofl@arg+2,f
  3551     0E30  0879               	movf	??___xxtofl+3,w
  3552     0E31  04A5               	iorwf	___xxtofl@arg+3,f
  3553     0E32                     l1980:
  3554     0E32  0820               	movf	___xxtofl@sign,w
  3555     0E33  1903               	btfsc	3,2
  3556     0E34  2E36               	goto	u2851
  3557     0E35  2E37               	goto	u2850
  3558     0E36                     u2851:
  3559     0E36  2E3C               	goto	l1986
  3560     0E37                     u2850:
  3561     0E37                     l1982:
  3562     0E37  1FF5               	btfss	___xxtofl@val+3,7
  3563     0E38  2E3A               	goto	u2861
  3564     0E39  2E3B               	goto	u2860
  3565     0E3A                     u2861:
  3566     0E3A  2E3C               	goto	l1986
  3567     0E3B                     u2860:
  3568     0E3B                     l1984:
  3569     0E3B  17A5               	bsf	___xxtofl@arg+3,7
  3570     0E3C                     l1986:
  3571     0E3C  0825               	movf	___xxtofl@arg+3,w
  3572     0E3D  00F5               	movwf	?___xxtofl+3
  3573     0E3E  0824               	movf	___xxtofl@arg+2,w
  3574     0E3F  00F4               	movwf	?___xxtofl+2
  3575     0E40  0823               	movf	___xxtofl@arg+1,w
  3576     0E41  00F3               	movwf	?___xxtofl+1
  3577     0E42  0822               	movf	___xxtofl@arg,w
  3578     0E43  00F2               	movwf	?___xxtofl
  3579     0E44                     l631:
  3580     0E44  0008               	return
  3581     0E45                     __end_of___xxtofl:
  3582                           
  3583                           	psect	text11
  3584     0C9A                     __ptext11:	
  3585 ;; *************** function ___flsub *****************
  3586 ;; Defined at:
  3587 ;;		line 242 in file "C:\Program Files\Microchip\xc8\v2.45\pic\sources\c99\common\sprcadd.c"
  3588 ;; Parameters:    Size  Location     Type
  3589 ;;  a               4   12[BANK0 ] unsigned char 
  3590 ;;  b               4   16[BANK0 ] unsigned char 
  3591 ;; Auto vars:     Size  Location     Type
  3592 ;;		None
  3593 ;; Return value:  Size  Location     Type
  3594 ;;                  4   12[BANK0 ] unsigned char 
  3595 ;; Registers used:
  3596 ;;		wreg, status,2, status,0, btemp+1, pclath, cstack
  3597 ;; Tracked objects:
  3598 ;;		On entry : 0/0
  3599 ;;		On exit  : 0/0
  3600 ;;		Unchanged: 0/0
  3601 ;; Data sizes:     COMMON   BANK0   BANK1   BANK3   BANK2
  3602 ;;      Params:         0       8       0       0       0
  3603 ;;      Locals:         0       0       0       0       0
  3604 ;;      Temps:          0       0       0       0       0
  3605 ;;      Totals:         0       8       0       0       0
  3606 ;;Total ram usage:        8 bytes
  3607 ;; Hardware stack levels used: 1
  3608 ;; Hardware stack levels required when called: 2
  3609 ;; This function calls:
  3610 ;;		___fladd
  3611 ;; This function is called by:
  3612 ;;		_main
  3613 ;; This function uses a non-reentrant model
  3614 ;;
  3615                           
  3616     0C9A                     ___flsub:	
  3617                           ;psect for function ___flsub
  3618                           
  3619     0C9A                     l1936:	
  3620                           ;incstack = 0
  3621                           ; Regs used in ___flsub: [wreg+status,2+status,0+btemp+1+pclath+cstack]
  3622                           
  3623     0C9A  3080               	movlw	128
  3624     0C9B  1283               	bcf	3,5	;RP0=0, select bank0
  3625     0C9C  1303               	bcf	3,6	;RP1=0, select bank0
  3626     0C9D  06AF               	xorwf	___flsub@a+3,f
  3627     0C9E                     l1938:
  3628     0C9E  0833               	movf	___flsub@b+3,w
  3629     0C9F  00F5               	movwf	___fladd@b+3
  3630     0CA0  0832               	movf	___flsub@b+2,w
  3631     0CA1  00F4               	movwf	___fladd@b+2
  3632     0CA2  0831               	movf	___flsub@b+1,w
  3633     0CA3  00F3               	movwf	___fladd@b+1
  3634     0CA4  0830               	movf	___flsub@b,w
  3635     0CA5  00F2               	movwf	___fladd@b
  3636     0CA6  082F               	movf	___flsub@a+3,w
  3637     0CA7  00F9               	movwf	___fladd@a+3
  3638     0CA8  082E               	movf	___flsub@a+2,w
  3639     0CA9  00F8               	movwf	___fladd@a+2
  3640     0CAA  082D               	movf	___flsub@a+1,w
  3641     0CAB  00F7               	movwf	___fladd@a+1
  3642     0CAC  082C               	movf	___flsub@a,w
  3643     0CAD  00F6               	movwf	___fladd@a
  3644     0CAE  120A  118A  235A  120A  158A  	fcall	___fladd
  3645     0CB3  0875               	movf	?___fladd+3,w
  3646     0CB4  1283               	bcf	3,5	;RP0=0, select bank0
  3647     0CB5  1303               	bcf	3,6	;RP1=0, select bank0
  3648     0CB6  00AF               	movwf	?___flsub+3
  3649     0CB7  0874               	movf	?___fladd+2,w
  3650     0CB8  00AE               	movwf	?___flsub+2
  3651     0CB9  0873               	movf	?___fladd+1,w
  3652     0CBA  00AD               	movwf	?___flsub+1
  3653     0CBB  0872               	movf	?___fladd,w
  3654     0CBC  00AC               	movwf	?___flsub
  3655     0CBD                     l535:
  3656     0CBD  0008               	return
  3657     0CBE                     __end_of___flsub:
  3658                           
  3659                           	psect	text12
  3660     035A                     __ptext12:	
  3661 ;; *************** function ___fladd *****************
  3662 ;; Defined at:
  3663 ;;		line 10 in file "C:\Program Files\Microchip\xc8\v2.45\pic\sources\c99\common\sprcadd.c"
  3664 ;; Parameters:    Size  Location     Type
  3665 ;;  b               4    2[COMMON] unsigned char 
  3666 ;;  a               4    6[COMMON] unsigned char 
  3667 ;; Auto vars:     Size  Location     Type
  3668 ;;  grs             1   11[BANK0 ] unsigned char 
  3669 ;;  bexp            1   10[BANK0 ] unsigned char 
  3670 ;;  aexp            1    9[BANK0 ] unsigned char 
  3671 ;;  signs           1    8[BANK0 ] unsigned char 
  3672 ;; Return value:  Size  Location     Type
  3673 ;;                  4    2[COMMON] unsigned char 
  3674 ;; Registers used:
  3675 ;;		wreg, status,2, status,0, btemp+1
  3676 ;; Tracked objects:
  3677 ;;		On entry : 0/0
  3678 ;;		On exit  : 0/0
  3679 ;;		Unchanged: 0/0
  3680 ;; Data sizes:     COMMON   BANK0   BANK1   BANK3   BANK2
  3681 ;;      Params:         8       0       0       0       0
  3682 ;;      Locals:         0       4       0       0       0
  3683 ;;      Temps:          0       8       0       0       0
  3684 ;;      Totals:         8      12       0       0       0
  3685 ;;Total ram usage:       20 bytes
  3686 ;; Hardware stack levels used: 1
  3687 ;; Hardware stack levels required when called: 1
  3688 ;; This function calls:
  3689 ;;		Nothing
  3690 ;; This function is called by:
  3691 ;;		_main
  3692 ;;		___flsub
  3693 ;; This function uses a non-reentrant model
  3694 ;;
  3695                           
  3696     035A                     ___fladd:	
  3697                           ;psect for function ___fladd
  3698                           
  3699     035A                     l1390:	
  3700                           ;incstack = 0
  3701                           ; Regs used in ___fladd: [wreg+status,2+status,0+btemp+1]
  3702                           
  3703     035A  0875               	movf	___fladd@b+3,w
  3704     035B  3980               	andlw	128
  3705     035C  1283               	bcf	3,5	;RP0=0, select bank0
  3706     035D  1303               	bcf	3,6	;RP1=0, select bank0
  3707     035E  00A8               	movwf	___fladd@signs
  3708     035F                     l1392:
  3709     035F  0875               	movf	___fladd@b+3,w
  3710     0360  00A0               	movwf	??___fladd
  3711     0361  0720               	addwf	??___fladd,w
  3712     0362  00AA               	movwf	___fladd@bexp
  3713     0363                     l1394:
  3714     0363  1FF4               	btfss	___fladd@b+2,7
  3715     0364  2B66               	goto	u1501
  3716     0365  2B67               	goto	u1500
  3717     0366                     u1501:
  3718     0366  2B68               	goto	l1398
  3719     0367                     u1500:
  3720     0367                     l1396:
  3721     0367  142A               	bsf	___fladd@bexp,0
  3722     0368                     l1398:
  3723     0368  082A               	movf	___fladd@bexp,w
  3724     0369  1903               	btfsc	3,2
  3725     036A  2B6C               	goto	u1511
  3726     036B  2B6D               	goto	u1510
  3727     036C                     u1511:
  3728     036C  2B7D               	goto	l1408
  3729     036D                     u1510:
  3730     036D                     l1400:
  3731     036D  0A2A               	incf	___fladd@bexp,w
  3732     036E  1D03               	btfss	3,2
  3733     036F  2B71               	goto	u1521
  3734     0370  2B72               	goto	u1520
  3735     0371                     u1521:
  3736     0371  2B7A               	goto	l1404
  3737     0372                     u1520:
  3738     0372                     l1402:
  3739     0372  3000               	movlw	0
  3740     0373  00F5               	movwf	___fladd@b+3
  3741     0374  3000               	movlw	0
  3742     0375  00F4               	movwf	___fladd@b+2
  3743     0376  3000               	movlw	0
  3744     0377  00F3               	movwf	___fladd@b+1
  3745     0378  3000               	movlw	0
  3746     0379  00F2               	movwf	___fladd@b
  3747     037A                     l1404:
  3748     037A  17F4               	bsf	___fladd@b+2,7
  3749     037B                     l1406:
  3750     037B  01F5               	clrf	___fladd@b+3
  3751     037C  2B85               	goto	l1410
  3752     037D                     l1408:
  3753     037D  3000               	movlw	0
  3754     037E  00F5               	movwf	___fladd@b+3
  3755     037F  3000               	movlw	0
  3756     0380  00F4               	movwf	___fladd@b+2
  3757     0381  3000               	movlw	0
  3758     0382  00F3               	movwf	___fladd@b+1
  3759     0383  3000               	movlw	0
  3760     0384  00F2               	movwf	___fladd@b
  3761     0385                     l1410:
  3762     0385  0879               	movf	___fladd@a+3,w
  3763     0386  3980               	andlw	128
  3764     0387  00A9               	movwf	___fladd@aexp
  3765     0388                     l1412:
  3766     0388  0829               	movf	___fladd@aexp,w
  3767     0389  0628               	xorwf	___fladd@signs,w
  3768     038A  1903               	skipnz
  3769     038B  2B8D               	goto	u1531
  3770     038C  2B8E               	goto	u1530
  3771     038D                     u1531:
  3772     038D  2B8F               	goto	l1416
  3773     038E                     u1530:
  3774     038E                     l1414:
  3775     038E  1728               	bsf	___fladd@signs,6
  3776     038F                     l1416:
  3777     038F  0879               	movf	___fladd@a+3,w
  3778     0390  00A0               	movwf	??___fladd
  3779     0391  0720               	addwf	??___fladd,w
  3780     0392  00A9               	movwf	___fladd@aexp
  3781     0393                     l1418:
  3782     0393  1FF8               	btfss	___fladd@a+2,7
  3783     0394  2B96               	goto	u1541
  3784     0395  2B97               	goto	u1540
  3785     0396                     u1541:
  3786     0396  2B98               	goto	l1422
  3787     0397                     u1540:
  3788     0397                     l1420:
  3789     0397  1429               	bsf	___fladd@aexp,0
  3790     0398                     l1422:
  3791     0398  0829               	movf	___fladd@aexp,w
  3792     0399  1903               	btfsc	3,2
  3793     039A  2B9C               	goto	u1551
  3794     039B  2B9D               	goto	u1550
  3795     039C                     u1551:
  3796     039C  2BAD               	goto	l1432
  3797     039D                     u1550:
  3798     039D                     l1424:
  3799     039D  0A29               	incf	___fladd@aexp,w
  3800     039E  1D03               	btfss	3,2
  3801     039F  2BA1               	goto	u1561
  3802     03A0  2BA2               	goto	u1560
  3803     03A1                     u1561:
  3804     03A1  2BAA               	goto	l1428
  3805     03A2                     u1560:
  3806     03A2                     l1426:
  3807     03A2  3000               	movlw	0
  3808     03A3  00F9               	movwf	___fladd@a+3
  3809     03A4  3000               	movlw	0
  3810     03A5  00F8               	movwf	___fladd@a+2
  3811     03A6  3000               	movlw	0
  3812     03A7  00F7               	movwf	___fladd@a+1
  3813     03A8  3000               	movlw	0
  3814     03A9  00F6               	movwf	___fladd@a
  3815     03AA                     l1428:
  3816     03AA  17F8               	bsf	___fladd@a+2,7
  3817     03AB                     l1430:
  3818     03AB  01F9               	clrf	___fladd@a+3
  3819     03AC  2BB5               	goto	l489
  3820     03AD                     l1432:
  3821     03AD  3000               	movlw	0
  3822     03AE  00F9               	movwf	___fladd@a+3
  3823     03AF  3000               	movlw	0
  3824     03B0  00F8               	movwf	___fladd@a+2
  3825     03B1  3000               	movlw	0
  3826     03B2  00F7               	movwf	___fladd@a+1
  3827     03B3  3000               	movlw	0
  3828     03B4  00F6               	movwf	___fladd@a
  3829     03B5                     l489:
  3830     03B5  082A               	movf	___fladd@bexp,w
  3831     03B6  0229               	subwf	___fladd@aexp,w
  3832     03B7  1803               	skipnc
  3833     03B8  2BBA               	goto	u1571
  3834     03B9  2BBB               	goto	u1570
  3835     03BA                     u1571:
  3836     03BA  2BE1               	goto	l1468
  3837     03BB                     u1570:
  3838     03BB                     l1434:
  3839     03BB  1F28               	btfss	___fladd@signs,6
  3840     03BC  2BBE               	goto	u1581
  3841     03BD  2BBF               	goto	u1580
  3842     03BE                     u1581:
  3843     03BE  2BC3               	goto	l1438
  3844     03BF                     u1580:
  3845     03BF                     l1436:
  3846     03BF  3080               	movlw	128
  3847     03C0  00FF               	movwf	btemp+1
  3848     03C1  087F               	movf	btemp+1,w
  3849     03C2  06A8               	xorwf	___fladd@signs,f
  3850     03C3                     l1438:
  3851     03C3  082A               	movf	___fladd@bexp,w
  3852     03C4  00AB               	movwf	___fladd@grs
  3853     03C5                     l1440:
  3854     03C5  0829               	movf	___fladd@aexp,w
  3855     03C6  00AA               	movwf	___fladd@bexp
  3856     03C7                     l1442:
  3857     03C7  082B               	movf	___fladd@grs,w
  3858     03C8  00A9               	movwf	___fladd@aexp
  3859     03C9                     l1444:
  3860     03C9  0872               	movf	___fladd@b,w
  3861     03CA  00AB               	movwf	___fladd@grs
  3862     03CB                     l1446:
  3863     03CB  0876               	movf	___fladd@a,w
  3864     03CC  00F2               	movwf	___fladd@b
  3865     03CD                     l1448:
  3866     03CD  082B               	movf	___fladd@grs,w
  3867     03CE  00F6               	movwf	___fladd@a
  3868     03CF                     l1450:
  3869     03CF  0873               	movf	___fladd@b+1,w
  3870     03D0  00AB               	movwf	___fladd@grs
  3871     03D1                     l1452:
  3872     03D1  0877               	movf	___fladd@a+1,w
  3873     03D2  00F3               	movwf	___fladd@b+1
  3874     03D3                     l1454:
  3875     03D3  082B               	movf	___fladd@grs,w
  3876     03D4  00F7               	movwf	___fladd@a+1
  3877     03D5                     l1456:
  3878     03D5  0874               	movf	___fladd@b+2,w
  3879     03D6  00AB               	movwf	___fladd@grs
  3880     03D7                     l1458:
  3881     03D7  0878               	movf	___fladd@a+2,w
  3882     03D8  00F4               	movwf	___fladd@b+2
  3883     03D9                     l1460:
  3884     03D9  082B               	movf	___fladd@grs,w
  3885     03DA  00F8               	movwf	___fladd@a+2
  3886     03DB                     l1462:
  3887     03DB  0875               	movf	___fladd@b+3,w
  3888     03DC  00AB               	movwf	___fladd@grs
  3889     03DD                     l1464:
  3890     03DD  0879               	movf	___fladd@a+3,w
  3891     03DE  00F5               	movwf	___fladd@b+3
  3892     03DF                     l1466:
  3893     03DF  082B               	movf	___fladd@grs,w
  3894     03E0  00F9               	movwf	___fladd@a+3
  3895     03E1                     l1468:
  3896     03E1  01AB               	clrf	___fladd@grs
  3897     03E2                     l1470:
  3898     03E2  0829               	movf	___fladd@aexp,w
  3899     03E3  00A0               	movwf	??___fladd
  3900     03E4  01A1               	clrf	??___fladd+1
  3901     03E5  0821               	movf	??___fladd+1,w
  3902     03E6  00A3               	movwf	??___fladd+3
  3903     03E7  082A               	movf	___fladd@bexp,w
  3904     03E8  0220               	subwf	??___fladd,w
  3905     03E9  00A2               	movwf	??___fladd+2
  3906     03EA  1C03               	skipc
  3907     03EB  03A3               	decf	??___fladd+3,f
  3908     03EC  0823               	movf	??___fladd+3,w
  3909     03ED  3A80               	xorlw	128
  3910     03EE  00FF               	movwf	btemp+1
  3911     03EF  3080               	movlw	128
  3912     03F0  027F               	subwf	btemp+1,w
  3913     03F1  1D03               	skipz
  3914     03F2  2BF5               	goto	u1595
  3915     03F3  301A               	movlw	26
  3916     03F4  0222               	subwf	??___fladd+2,w
  3917     03F5                     u1595:
  3918     03F5  1C03               	skipc
  3919     03F6  2BF8               	goto	u1591
  3920     03F7  2BF9               	goto	u1590
  3921     03F8                     u1591:
  3922     03F8  2C30               	goto	l1486
  3923     03F9                     u1590:
  3924     03F9                     l1472:
  3925     03F9  0875               	movf	___fladd@b+3,w
  3926     03FA  0474               	iorwf	___fladd@b+2,w
  3927     03FB  0473               	iorwf	___fladd@b+1,w
  3928     03FC  0472               	iorwf	___fladd@b,w
  3929     03FD  1D03               	skipz
  3930     03FE  2C00               	goto	u1601
  3931     03FF  2C02               	goto	u1600
  3932     0400                     u1601:
  3933     0400  3001               	movlw	1
  3934     0401  2C03               	goto	u1610
  3935     0402                     u1600:
  3936     0402  3000               	movlw	0
  3937     0403                     u1610:
  3938     0403  1283               	bcf	3,5	;RP0=0, select bank0
  3939     0404  1303               	bcf	3,6	;RP1=0, select bank0
  3940     0405  00AB               	movwf	___fladd@grs
  3941     0406  3000               	movlw	0
  3942     0407  00F5               	movwf	___fladd@b+3
  3943     0408  3000               	movlw	0
  3944     0409  00F4               	movwf	___fladd@b+2
  3945     040A  3000               	movlw	0
  3946     040B  00F3               	movwf	___fladd@b+1
  3947     040C  3000               	movlw	0
  3948     040D  00F2               	movwf	___fladd@b
  3949     040E  0829               	movf	___fladd@aexp,w
  3950     040F  00AA               	movwf	___fladd@bexp
  3951     0410  2C38               	goto	l493
  3952     0411                     l495:
  3953     0411  1C2B               	btfss	___fladd@grs,0
  3954     0412  2C14               	goto	u1621
  3955     0413  2C15               	goto	u1620
  3956     0414                     u1621:
  3957     0414  2C1C               	goto	l1476
  3958     0415                     u1620:
  3959     0415                     l1474:
  3960     0415  082B               	movf	___fladd@grs,w
  3961     0416  00A0               	movwf	??___fladd
  3962     0417  1003               	clrc
  3963     0418  0C20               	rrf	??___fladd,w
  3964     0419  3801               	iorlw	1
  3965     041A  00AB               	movwf	___fladd@grs
  3966     041B  2C1E               	goto	l1478
  3967     041C                     l1476:
  3968     041C  1003               	clrc
  3969     041D  0CAB               	rrf	___fladd@grs,f
  3970     041E                     l1478:
  3971     041E  1C72               	btfss	___fladd@b,0
  3972     041F  2C21               	goto	u1631
  3973     0420  2C22               	goto	u1630
  3974     0421                     u1631:
  3975     0421  2C23               	goto	l1482
  3976     0422                     u1630:
  3977     0422                     l1480:
  3978     0422  17AB               	bsf	___fladd@grs,7
  3979     0423                     l1482:
  3980     0423  3001               	movlw	1
  3981     0424  00A0               	movwf	??___fladd
  3982     0425                     u1645:
  3983     0425  0D75               	rlf	___fladd@b+3,w
  3984     0426  0CF5               	rrf	___fladd@b+3,f
  3985     0427  0CF4               	rrf	___fladd@b+2,f
  3986     0428  0CF3               	rrf	___fladd@b+1,f
  3987     0429  0CF2               	rrf	___fladd@b,f
  3988     042A  0BA0               	decfsz	??___fladd& (0+127),f
  3989     042B  2C25               	goto	u1645
  3990     042C                     l1484:
  3991     042C  3001               	movlw	1
  3992     042D  00FF               	movwf	btemp+1
  3993     042E  087F               	movf	btemp+1,w
  3994     042F  07AA               	addwf	___fladd@bexp,f
  3995     0430                     l1486:
  3996     0430  1283               	bcf	3,5	;RP0=0, select bank0
  3997     0431  1303               	bcf	3,6	;RP1=0, select bank0
  3998     0432  0829               	movf	___fladd@aexp,w
  3999     0433  022A               	subwf	___fladd@bexp,w
  4000     0434  1C03               	skipc
  4001     0435  2C37               	goto	u1651
  4002     0436  2C38               	goto	u1650
  4003     0437                     u1651:
  4004     0437  2C11               	goto	l495
  4005     0438                     u1650:
  4006     0438                     l493:
  4007     0438  1B28               	btfsc	___fladd@signs,6
  4008     0439  2C3B               	goto	u1661
  4009     043A  2C3C               	goto	u1660
  4010     043B                     u1661:
  4011     043B  2C85               	goto	l1512
  4012     043C                     u1660:
  4013     043C                     l1488:
  4014     043C  082A               	movf	___fladd@bexp,w
  4015     043D  1D03               	btfss	3,2
  4016     043E  2C40               	goto	u1671
  4017     043F  2C41               	goto	u1670
  4018     0440                     u1671:
  4019     0440  2C4A               	goto	l1494
  4020     0441                     u1670:
  4021     0441                     l1490:
  4022     0441  3000               	movlw	0
  4023     0442  00F5               	movwf	?___fladd+3
  4024     0443  3000               	movlw	0
  4025     0444  00F4               	movwf	?___fladd+2
  4026     0445  3000               	movlw	0
  4027     0446  00F3               	movwf	?___fladd+1
  4028     0447  3000               	movlw	0
  4029     0448  00F2               	movwf	?___fladd
  4030     0449  2DB1               	goto	l502
  4031     044A                     l1494:
  4032     044A  0876               	movf	___fladd@a,w
  4033     044B  07F2               	addwf	___fladd@b,f
  4034     044C  0877               	movf	___fladd@a+1,w
  4035     044D  1103               	clrz
  4036     044E  1803               	skipnc
  4037     044F  3E01               	addlw	1
  4038     0450  1903               	skipnz
  4039     0451  2C53               	goto	u1681
  4040     0452  07F3               	addwf	___fladd@b+1,f
  4041     0453                     u1681:
  4042     0453  0878               	movf	___fladd@a+2,w
  4043     0454  1103               	clrz
  4044     0455  1803               	skipnc
  4045     0456  3E01               	addlw	1
  4046     0457  1903               	skipnz
  4047     0458  2C5A               	goto	u1682
  4048     0459  07F4               	addwf	___fladd@b+2,f
  4049     045A                     u1682:
  4050     045A  0879               	movf	___fladd@a+3,w
  4051     045B  1103               	clrz
  4052     045C  1803               	skipnc
  4053     045D  3E01               	addlw	1
  4054     045E  1903               	skipnz
  4055     045F  2C61               	goto	u1683
  4056     0460  07F5               	addwf	___fladd@b+3,f
  4057     0461                     u1683:
  4058     0461                     l1496:
  4059     0461  1C75               	btfss	___fladd@b+3,0
  4060     0462  2C64               	goto	u1691
  4061     0463  2C65               	goto	u1690
  4062     0464                     u1691:
  4063     0464  2D39               	goto	l1548
  4064     0465                     u1690:
  4065     0465                     l1498:
  4066     0465  1C2B               	btfss	___fladd@grs,0
  4067     0466  2C68               	goto	u1701
  4068     0467  2C69               	goto	u1700
  4069     0468                     u1701:
  4070     0468  2C70               	goto	l1502
  4071     0469                     u1700:
  4072     0469                     l1500:
  4073     0469  082B               	movf	___fladd@grs,w
  4074     046A  00A0               	movwf	??___fladd
  4075     046B  1003               	clrc
  4076     046C  0C20               	rrf	??___fladd,w
  4077     046D  3801               	iorlw	1
  4078     046E  00AB               	movwf	___fladd@grs
  4079     046F  2C72               	goto	l1504
  4080     0470                     l1502:
  4081     0470  1003               	clrc
  4082     0471  0CAB               	rrf	___fladd@grs,f
  4083     0472                     l1504:
  4084     0472  1C72               	btfss	___fladd@b,0
  4085     0473  2C75               	goto	u1711
  4086     0474  2C76               	goto	u1710
  4087     0475                     u1711:
  4088     0475  2C77               	goto	l1508
  4089     0476                     u1710:
  4090     0476                     l1506:
  4091     0476  17AB               	bsf	___fladd@grs,7
  4092     0477                     l1508:
  4093     0477  3001               	movlw	1
  4094     0478  00A0               	movwf	??___fladd
  4095     0479                     u1725:
  4096     0479  0D75               	rlf	___fladd@b+3,w
  4097     047A  0CF5               	rrf	___fladd@b+3,f
  4098     047B  0CF4               	rrf	___fladd@b+2,f
  4099     047C  0CF3               	rrf	___fladd@b+1,f
  4100     047D  0CF2               	rrf	___fladd@b,f
  4101     047E  0BA0               	decfsz	??___fladd& (0+127),f
  4102     047F  2C79               	goto	u1725
  4103     0480                     l1510:
  4104     0480  3001               	movlw	1
  4105     0481  00FF               	movwf	btemp+1
  4106     0482  087F               	movf	btemp+1,w
  4107     0483  07AA               	addwf	___fladd@bexp,f
  4108     0484  2D39               	goto	l1548
  4109     0485                     l1512:
  4110     0485  0875               	movf	___fladd@b+3,w
  4111     0486  3A80               	xorlw	128
  4112     0487  00FF               	movwf	btemp+1
  4113     0488  0879               	movf	___fladd@a+3,w
  4114     0489  3A80               	xorlw	128
  4115     048A  027F               	subwf	btemp+1,w
  4116     048B  1D03               	skipz
  4117     048C  2C97               	goto	u1733
  4118     048D  0878               	movf	___fladd@a+2,w
  4119     048E  0274               	subwf	___fladd@b+2,w
  4120     048F  1D03               	skipz
  4121     0490  2C97               	goto	u1733
  4122     0491  0877               	movf	___fladd@a+1,w
  4123     0492  0273               	subwf	___fladd@b+1,w
  4124     0493  1D03               	skipz
  4125     0494  2C97               	goto	u1733
  4126     0495  0876               	movf	___fladd@a,w
  4127     0496  0272               	subwf	___fladd@b,w
  4128     0497                     u1733:
  4129     0497  1803               	skipnc
  4130     0498  2C9A               	goto	u1731
  4131     0499  2C9B               	goto	u1730
  4132     049A                     u1731:
  4133     049A  2CF3               	goto	l1524
  4134     049B                     u1730:
  4135     049B                     l1514:
  4136     049B  30FF               	movlw	255
  4137     049C  00A0               	movwf	??___fladd
  4138     049D  30FF               	movlw	255
  4139     049E  00A1               	movwf	??___fladd+1
  4140     049F  30FF               	movlw	255
  4141     04A0  00A2               	movwf	??___fladd+2
  4142     04A1  30FF               	movlw	255
  4143     04A2  00A3               	movwf	??___fladd+3
  4144     04A3  0876               	movf	___fladd@a,w
  4145     04A4  00A4               	movwf	??___fladd+4
  4146     04A5  0877               	movf	___fladd@a+1,w
  4147     04A6  00A5               	movwf	??___fladd+5
  4148     04A7  0878               	movf	___fladd@a+2,w
  4149     04A8  00A6               	movwf	??___fladd+6
  4150     04A9  0879               	movf	___fladd@a+3,w
  4151     04AA  00A7               	movwf	??___fladd+7
  4152     04AB  0872               	movf	___fladd@b,w
  4153     04AC  02A4               	subwf	??___fladd+4,f
  4154     04AD  0873               	movf	___fladd@b+1,w
  4155     04AE  1C03               	skipc
  4156     04AF  0F73               	incfsz	___fladd@b+1,w
  4157     04B0  2CB2               	goto	u1741
  4158     04B1  2CB3               	goto	u1742
  4159     04B2                     u1741:
  4160     04B2  02A5               	subwf	??___fladd+5,f
  4161     04B3                     u1742:
  4162     04B3  0874               	movf	___fladd@b+2,w
  4163     04B4  1C03               	skipc
  4164     04B5  0F74               	incfsz	___fladd@b+2,w
  4165     04B6  2CB8               	goto	u1743
  4166     04B7  2CB9               	goto	u1744
  4167     04B8                     u1743:
  4168     04B8  02A6               	subwf	??___fladd+6,f
  4169     04B9                     u1744:
  4170     04B9  0875               	movf	___fladd@b+3,w
  4171     04BA  1C03               	skipc
  4172     04BB  0F75               	incfsz	___fladd@b+3,w
  4173     04BC  2CBE               	goto	u1745
  4174     04BD  2CBF               	goto	u1746
  4175     04BE                     u1745:
  4176     04BE  02A7               	subwf	??___fladd+7,f
  4177     04BF                     u1746:
  4178     04BF  0824               	movf	??___fladd+4,w
  4179     04C0  07A0               	addwf	??___fladd,f
  4180     04C1  0825               	movf	??___fladd+5,w
  4181     04C2  1803               	skipnc
  4182     04C3  0F25               	incfsz	??___fladd+5,w
  4183     04C4  2CC6               	goto	u1750
  4184     04C5  2CC7               	goto	u1751
  4185     04C6                     u1750:
  4186     04C6  07A1               	addwf	??___fladd+1,f
  4187     04C7                     u1751:
  4188     04C7  0826               	movf	??___fladd+6,w
  4189     04C8  1803               	skipnc
  4190     04C9  0F26               	incfsz	??___fladd+6,w
  4191     04CA  2CCC               	goto	u1752
  4192     04CB  2CCD               	goto	u1753
  4193     04CC                     u1752:
  4194     04CC  07A2               	addwf	??___fladd+2,f
  4195     04CD                     u1753:
  4196     04CD  0827               	movf	??___fladd+7,w
  4197     04CE  1803               	skipnc
  4198     04CF  0A27               	incf	??___fladd+7,w
  4199     04D0  07A3               	addwf	??___fladd+3,f
  4200     04D1  0823               	movf	??___fladd+3,w
  4201     04D2  00F5               	movwf	___fladd@b+3
  4202     04D3  0822               	movf	??___fladd+2,w
  4203     04D4  00F4               	movwf	___fladd@b+2
  4204     04D5  0821               	movf	??___fladd+1,w
  4205     04D6  00F3               	movwf	___fladd@b+1
  4206     04D7  0820               	movf	??___fladd,w
  4207     04D8  00F2               	movwf	___fladd@b
  4208     04D9                     l1516:
  4209     04D9  3080               	movlw	128
  4210     04DA  00FF               	movwf	btemp+1
  4211     04DB  087F               	movf	btemp+1,w
  4212     04DC  06A8               	xorwf	___fladd@signs,f
  4213     04DD                     l1518:
  4214     04DD  09AB               	comf	___fladd@grs,f
  4215     04DE  0AAB               	incf	___fladd@grs,f
  4216     04DF                     l1520:
  4217     04DF  082B               	movf	___fladd@grs,w
  4218     04E0  1D03               	btfss	3,2
  4219     04E1  2CE3               	goto	u1761
  4220     04E2  2CE4               	goto	u1760
  4221     04E3                     u1761:
  4222     04E3  2D01               	goto	l510
  4223     04E4                     u1760:
  4224     04E4                     l1522:
  4225     04E4  3001               	movlw	1
  4226     04E5  07F2               	addwf	___fladd@b,f
  4227     04E6  3000               	movlw	0
  4228     04E7  1803               	skipnc
  4229     04E8  3001               	movlw	1
  4230     04E9  07F3               	addwf	___fladd@b+1,f
  4231     04EA  3000               	movlw	0
  4232     04EB  1803               	skipnc
  4233     04EC  3001               	movlw	1
  4234     04ED  07F4               	addwf	___fladd@b+2,f
  4235     04EE  3000               	movlw	0
  4236     04EF  1803               	skipnc
  4237     04F0  3001               	movlw	1
  4238     04F1  07F5               	addwf	___fladd@b+3,f
  4239     04F2  2D01               	goto	l510
  4240     04F3                     l1524:
  4241     04F3  0876               	movf	___fladd@a,w
  4242     04F4  02F2               	subwf	___fladd@b,f
  4243     04F5  0877               	movf	___fladd@a+1,w
  4244     04F6  1C03               	skipc
  4245     04F7  0F77               	incfsz	___fladd@a+1,w
  4246     04F8  02F3               	subwf	___fladd@b+1,f
  4247     04F9  0878               	movf	___fladd@a+2,w
  4248     04FA  1C03               	skipc
  4249     04FB  0F78               	incfsz	___fladd@a+2,w
  4250     04FC  02F4               	subwf	___fladd@b+2,f
  4251     04FD  0879               	movf	___fladd@a+3,w
  4252     04FE  1C03               	skipc
  4253     04FF  0F79               	incfsz	___fladd@a+3,w
  4254     0500  02F5               	subwf	___fladd@b+3,f
  4255     0501                     l510:
  4256     0501  0875               	movf	___fladd@b+3,w
  4257     0502  0474               	iorwf	___fladd@b+2,w
  4258     0503  0473               	iorwf	___fladd@b+1,w
  4259     0504  0472               	iorwf	___fladd@b,w
  4260     0505  1D03               	skipz
  4261     0506  2D08               	goto	u1771
  4262     0507  2D09               	goto	u1770
  4263     0508                     u1771:
  4264     0508  2D35               	goto	l1546
  4265     0509                     u1770:
  4266     0509                     l1526:
  4267     0509  082B               	movf	___fladd@grs,w
  4268     050A  1D03               	btfss	3,2
  4269     050B  2D0D               	goto	u1781
  4270     050C  2D0E               	goto	u1780
  4271     050D                     u1781:
  4272     050D  2D35               	goto	l1546
  4273     050E                     u1780:
  4274     050E                     l1528:
  4275     050E  3000               	movlw	0
  4276     050F  00F5               	movwf	?___fladd+3
  4277     0510  3000               	movlw	0
  4278     0511  00F4               	movwf	?___fladd+2
  4279     0512  3000               	movlw	0
  4280     0513  00F3               	movwf	?___fladd+1
  4281     0514  3000               	movlw	0
  4282     0515  00F2               	movwf	?___fladd
  4283     0516  2DB1               	goto	l502
  4284     0517                     l1532:
  4285     0517  3001               	movlw	1
  4286     0518  00A0               	movwf	??___fladd
  4287     0519                     u1795:
  4288     0519  1003               	clrc
  4289     051A  0DF2               	rlf	___fladd@b,f
  4290     051B  0DF3               	rlf	___fladd@b+1,f
  4291     051C  0DF4               	rlf	___fladd@b+2,f
  4292     051D  0DF5               	rlf	___fladd@b+3,f
  4293     051E  0BA0               	decfsz	??___fladd,f
  4294     051F  2D19               	goto	u1795
  4295     0520                     l1534:
  4296     0520  1FAB               	btfss	___fladd@grs,7
  4297     0521  2D23               	goto	u1801
  4298     0522  2D24               	goto	u1800
  4299     0523                     u1801:
  4300     0523  2D25               	goto	l514
  4301     0524                     u1800:
  4302     0524                     l1536:
  4303     0524  1472               	bsf	___fladd@b,0
  4304     0525                     l514:
  4305     0525  1C2B               	btfss	___fladd@grs,0
  4306     0526  2D28               	goto	u1811
  4307     0527  2D29               	goto	u1810
  4308     0528                     u1811:
  4309     0528  2D2C               	goto	l1540
  4310     0529                     u1810:
  4311     0529                     l1538:
  4312     0529  1403               	setc
  4313     052A  0DAB               	rlf	___fladd@grs,f
  4314     052B  2D2E               	goto	l1542
  4315     052C                     l1540:
  4316     052C  1003               	clrc
  4317     052D  0DAB               	rlf	___fladd@grs,f
  4318     052E                     l1542:
  4319     052E  082A               	movf	___fladd@bexp,w
  4320     052F  1903               	btfsc	3,2
  4321     0530  2D32               	goto	u1821
  4322     0531  2D33               	goto	u1820
  4323     0532                     u1821:
  4324     0532  2D35               	goto	l1546
  4325     0533                     u1820:
  4326     0533                     l1544:
  4327     0533  3001               	movlw	1
  4328     0534  02AA               	subwf	___fladd@bexp,f
  4329     0535                     l1546:
  4330     0535  1FF4               	btfss	___fladd@b+2,7
  4331     0536  2D38               	goto	u1831
  4332     0537  2D39               	goto	u1830
  4333     0538                     u1831:
  4334     0538  2D17               	goto	l1532
  4335     0539                     u1830:
  4336     0539                     l1548:
  4337     0539  01A9               	clrf	___fladd@aexp
  4338     053A                     l1550:
  4339     053A  1FAB               	btfss	___fladd@grs,7
  4340     053B  2D3D               	goto	u1841
  4341     053C  2D3E               	goto	u1840
  4342     053D                     u1841:
  4343     053D  2D4C               	goto	l1558
  4344     053E                     u1840:
  4345     053E                     l1552:
  4346     053E  082B               	movf	___fladd@grs,w
  4347     053F  397F               	andlw	127
  4348     0540  1903               	btfsc	3,2
  4349     0541  2D43               	goto	u1851
  4350     0542  2D44               	goto	u1850
  4351     0543                     u1851:
  4352     0543  2D47               	goto	l520
  4353     0544                     u1850:
  4354     0544                     l1554:
  4355     0544  01A9               	clrf	___fladd@aexp
  4356     0545  0AA9               	incf	___fladd@aexp,f
  4357     0546  2D4C               	goto	l1558
  4358     0547                     l520:
  4359     0547  1C72               	btfss	___fladd@b,0
  4360     0548  2D4A               	goto	u1861
  4361     0549  2D4B               	goto	u1860
  4362     054A                     u1861:
  4363     054A  2D4C               	goto	l1558
  4364     054B                     u1860:
  4365     054B  2D44               	goto	l1554
  4366     054C                     l1558:
  4367     054C  0829               	movf	___fladd@aexp,w
  4368     054D  1903               	btfsc	3,2
  4369     054E  2D50               	goto	u1871
  4370     054F  2D51               	goto	u1870
  4371     0550                     u1871:
  4372     0550  2D85               	goto	l1568
  4373     0551                     u1870:
  4374     0551                     l1560:
  4375     0551  3001               	movlw	1
  4376     0552  07F2               	addwf	___fladd@b,f
  4377     0553  3000               	movlw	0
  4378     0554  1803               	skipnc
  4379     0555  3001               	movlw	1
  4380     0556  07F3               	addwf	___fladd@b+1,f
  4381     0557  3000               	movlw	0
  4382     0558  1803               	skipnc
  4383     0559  3001               	movlw	1
  4384     055A  07F4               	addwf	___fladd@b+2,f
  4385     055B  3000               	movlw	0
  4386     055C  1803               	skipnc
  4387     055D  3001               	movlw	1
  4388     055E  07F5               	addwf	___fladd@b+3,f
  4389     055F                     l1562:
  4390     055F  1C75               	btfss	___fladd@b+3,0
  4391     0560  2D62               	goto	u1881
  4392     0561  2D63               	goto	u1880
  4393     0562                     u1881:
  4394     0562  2D85               	goto	l1568
  4395     0563                     u1880:
  4396     0563                     l1564:
  4397     0563  0872               	movf	___fladd@b,w
  4398     0564  00A0               	movwf	??___fladd
  4399     0565  0873               	movf	___fladd@b+1,w
  4400     0566  00A1               	movwf	??___fladd+1
  4401     0567  0874               	movf	___fladd@b+2,w
  4402     0568  00A2               	movwf	??___fladd+2
  4403     0569  0875               	movf	___fladd@b+3,w
  4404     056A  00A3               	movwf	??___fladd+3
  4405     056B  3001               	movlw	1
  4406     056C  00A4               	movwf	??___fladd+4
  4407     056D                     u1895:
  4408     056D  0D23               	rlf	??___fladd+3,w
  4409     056E  0CA3               	rrf	??___fladd+3,f
  4410     056F  0CA2               	rrf	??___fladd+2,f
  4411     0570  0CA1               	rrf	??___fladd+1,f
  4412     0571  0CA0               	rrf	??___fladd,f
  4413     0572                     u1890:
  4414     0572  0BA4               	decfsz	??___fladd+4,f
  4415     0573  2D6D               	goto	u1895
  4416     0574  0823               	movf	??___fladd+3,w
  4417     0575  00F5               	movwf	___fladd@b+3
  4418     0576  0822               	movf	??___fladd+2,w
  4419     0577  00F4               	movwf	___fladd@b+2
  4420     0578  0821               	movf	??___fladd+1,w
  4421     0579  00F3               	movwf	___fladd@b+1
  4422     057A  0820               	movf	??___fladd,w
  4423     057B  00F2               	movwf	___fladd@b
  4424     057C  0A2A               	incf	___fladd@bexp,w
  4425     057D  1903               	btfsc	3,2
  4426     057E  2D80               	goto	u1901
  4427     057F  2D81               	goto	u1900
  4428     0580                     u1901:
  4429     0580  2D85               	goto	l1568
  4430     0581                     u1900:
  4431     0581                     l1566:
  4432     0581  3001               	movlw	1
  4433     0582  00FF               	movwf	btemp+1
  4434     0583  087F               	movf	btemp+1,w
  4435     0584  07AA               	addwf	___fladd@bexp,f
  4436     0585                     l1568:
  4437     0585  0A2A               	incf	___fladd@bexp,w
  4438     0586  1903               	btfsc	3,2
  4439     0587  2D89               	goto	u1911
  4440     0588  2D8A               	goto	u1910
  4441     0589                     u1911:
  4442     0589  2D8F               	goto	l1572
  4443     058A                     u1910:
  4444     058A                     l1570:
  4445     058A  082A               	movf	___fladd@bexp,w
  4446     058B  1D03               	btfss	3,2
  4447     058C  2D8E               	goto	u1921
  4448     058D  2D8F               	goto	u1920
  4449     058E                     u1921:
  4450     058E  2D9D               	goto	l1578
  4451     058F                     u1920:
  4452     058F                     l1572:
  4453     058F  3000               	movlw	0
  4454     0590  00F5               	movwf	___fladd@b+3
  4455     0591  3000               	movlw	0
  4456     0592  00F4               	movwf	___fladd@b+2
  4457     0593  3000               	movlw	0
  4458     0594  00F3               	movwf	___fladd@b+1
  4459     0595  3000               	movlw	0
  4460     0596  00F2               	movwf	___fladd@b
  4461     0597                     l1574:
  4462     0597  082A               	movf	___fladd@bexp,w
  4463     0598  1D03               	btfss	3,2
  4464     0599  2D9B               	goto	u1931
  4465     059A  2D9C               	goto	u1930
  4466     059B                     u1931:
  4467     059B  2D9D               	goto	l1578
  4468     059C                     u1930:
  4469     059C                     l1576:
  4470     059C  01A8               	clrf	___fladd@signs
  4471     059D                     l1578:
  4472     059D  1C2A               	btfss	___fladd@bexp,0
  4473     059E  2DA0               	goto	u1941
  4474     059F  2DA1               	goto	u1940
  4475     05A0                     u1941:
  4476     05A0  2DA3               	goto	l1582
  4477     05A1                     u1940:
  4478     05A1                     l1580:
  4479     05A1  17F4               	bsf	___fladd@b+2,7
  4480     05A2  2DA7               	goto	l1584
  4481     05A3                     l1582:
  4482     05A3  307F               	movlw	127
  4483     05A4  00FF               	movwf	btemp+1
  4484     05A5  087F               	movf	btemp+1,w
  4485     05A6  05F4               	andwf	___fladd@b+2,f
  4486     05A7                     l1584:
  4487     05A7  082A               	movf	___fladd@bexp,w
  4488     05A8  00A0               	movwf	??___fladd
  4489     05A9  1003               	clrc
  4490     05AA  0C20               	rrf	??___fladd,w
  4491     05AB  00F5               	movwf	___fladd@b+3
  4492     05AC                     l1586:
  4493     05AC  1FA8               	btfss	___fladd@signs,7
  4494     05AD  2DAF               	goto	u1951
  4495     05AE  2DB0               	goto	u1950
  4496     05AF                     u1951:
  4497     05AF  2DB1               	goto	l532
  4498     05B0                     u1950:
  4499     05B0                     l1588:
  4500     05B0  17F5               	bsf	___fladd@b+3,7
  4501     05B1                     l532:
  4502     05B1                     l502:
  4503     05B1  0008               	return
  4504     05B2                     __end_of___fladd:
  4505                           
  4506                           	psect	text13
  4507     0CE7                     __ptext13:	
  4508 ;; *************** function ___flge *****************
  4509 ;; Defined at:
  4510 ;;		line 4 in file "C:\Program Files\Microchip\xc8\v2.45\pic\sources\c99\common\flge.c"
  4511 ;; Parameters:    Size  Location     Type
  4512 ;;  ff1             4    2[COMMON] unsigned char 
  4513 ;;  ff2             4    6[COMMON] unsigned char 
  4514 ;; Auto vars:     Size  Location     Type
  4515 ;;		None
  4516 ;; Return value:  Size  Location     Type
  4517 ;;		None               void
  4518 ;; Registers used:
  4519 ;;		wreg, status,2, status,0
  4520 ;; Tracked objects:
  4521 ;;		On entry : 0/0
  4522 ;;		On exit  : 0/0
  4523 ;;		Unchanged: 0/0
  4524 ;; Data sizes:     COMMON   BANK0   BANK1   BANK3   BANK2
  4525 ;;      Params:         8       0       0       0       0
  4526 ;;      Locals:         0       0       0       0       0
  4527 ;;      Temps:          0       4       0       0       0
  4528 ;;      Totals:         8       4       0       0       0
  4529 ;;Total ram usage:       12 bytes
  4530 ;; Hardware stack levels used: 1
  4531 ;; Hardware stack levels required when called: 1
  4532 ;; This function calls:
  4533 ;;		Nothing
  4534 ;; This function is called by:
  4535 ;;		_main
  4536 ;; This function uses a non-reentrant model
  4537 ;;
  4538                           
  4539     0CE7                     ___flge:	
  4540                           ;psect for function ___flge
  4541                           
  4542     0CE7                     l1916:	
  4543                           ;incstack = 0
  4544                           ; Regs used in ___flge: [wreg+status,2+status,0]
  4545                           
  4546     0CE7  3000               	movlw	0
  4547     0CE8  0572               	andwf	___flge@ff1,w
  4548     0CE9  1283               	bcf	3,5	;RP0=0, select bank0
  4549     0CEA  1303               	bcf	3,6	;RP1=0, select bank0
  4550     0CEB  00A0               	movwf	??___flge
  4551     0CEC  3000               	movlw	0
  4552     0CED  0573               	andwf	___flge@ff1+1,w
  4553     0CEE  00A1               	movwf	??___flge+1
  4554     0CEF  3080               	movlw	128
  4555     0CF0  0574               	andwf	___flge@ff1+2,w
  4556     0CF1  00A2               	movwf	??___flge+2
  4557     0CF2  307F               	movlw	127
  4558     0CF3  0575               	andwf	___flge@ff1+3,w
  4559     0CF4  00A3               	movwf	??___flge+3
  4560     0CF5  0823               	movf	??___flge+3,w
  4561     0CF6  0422               	iorwf	??___flge+2,w
  4562     0CF7  0421               	iorwf	??___flge+1,w
  4563     0CF8  0420               	iorwf	??___flge,w
  4564     0CF9  1D03               	skipz
  4565     0CFA  2CFC               	goto	u2661
  4566     0CFB  2CFD               	goto	u2660
  4567     0CFC                     u2661:
  4568     0CFC  2D05               	goto	l366
  4569     0CFD                     u2660:
  4570     0CFD                     l1918:
  4571     0CFD  3000               	movlw	0
  4572     0CFE  00F5               	movwf	___flge@ff1+3
  4573     0CFF  3000               	movlw	0
  4574     0D00  00F4               	movwf	___flge@ff1+2
  4575     0D01  3000               	movlw	0
  4576     0D02  00F3               	movwf	___flge@ff1+1
  4577     0D03  3000               	movlw	0
  4578     0D04  00F2               	movwf	___flge@ff1
  4579     0D05                     l366:
  4580     0D05  3000               	movlw	0
  4581     0D06  0576               	andwf	___flge@ff2,w
  4582     0D07  00A0               	movwf	??___flge
  4583     0D08  3000               	movlw	0
  4584     0D09  0577               	andwf	___flge@ff2+1,w
  4585     0D0A  00A1               	movwf	??___flge+1
  4586     0D0B  3080               	movlw	128
  4587     0D0C  0578               	andwf	___flge@ff2+2,w
  4588     0D0D  00A2               	movwf	??___flge+2
  4589     0D0E  307F               	movlw	127
  4590     0D0F  0579               	andwf	___flge@ff2+3,w
  4591     0D10  00A3               	movwf	??___flge+3
  4592     0D11  0823               	movf	??___flge+3,w
  4593     0D12  0422               	iorwf	??___flge+2,w
  4594     0D13  0421               	iorwf	??___flge+1,w
  4595     0D14  0420               	iorwf	??___flge,w
  4596     0D15  1D03               	skipz
  4597     0D16  2D18               	goto	u2671
  4598     0D17  2D19               	goto	u2670
  4599     0D18                     u2671:
  4600     0D18  2D21               	goto	l1922
  4601     0D19                     u2670:
  4602     0D19                     l1920:
  4603     0D19  3000               	movlw	0
  4604     0D1A  00F9               	movwf	___flge@ff2+3
  4605     0D1B  3000               	movlw	0
  4606     0D1C  00F8               	movwf	___flge@ff2+2
  4607     0D1D  3000               	movlw	0
  4608     0D1E  00F7               	movwf	___flge@ff2+1
  4609     0D1F  3000               	movlw	0
  4610     0D20  00F6               	movwf	___flge@ff2
  4611     0D21                     l1922:
  4612     0D21  1FF5               	btfss	___flge@ff1+3,7
  4613     0D22  2D24               	goto	u2681
  4614     0D23  2D25               	goto	u2680
  4615     0D24                     u2681:
  4616     0D24  2D49               	goto	l1926
  4617     0D25                     u2680:
  4618     0D25                     l1924:
  4619     0D25  3000               	movlw	0
  4620     0D26  00A0               	movwf	??___flge
  4621     0D27  3000               	movlw	0
  4622     0D28  00A1               	movwf	??___flge+1
  4623     0D29  3000               	movlw	0
  4624     0D2A  00A2               	movwf	??___flge+2
  4625     0D2B  3080               	movlw	128
  4626     0D2C  00A3               	movwf	??___flge+3
  4627     0D2D  0872               	movf	___flge@ff1,w
  4628     0D2E  02A0               	subwf	??___flge,f
  4629     0D2F  0873               	movf	___flge@ff1+1,w
  4630     0D30  1C03               	skipc
  4631     0D31  0F73               	incfsz	___flge@ff1+1,w
  4632     0D32  2D34               	goto	u2691
  4633     0D33  2D35               	goto	u2692
  4634     0D34                     u2691:
  4635     0D34  02A1               	subwf	??___flge+1,f
  4636     0D35                     u2692:
  4637     0D35  0874               	movf	___flge@ff1+2,w
  4638     0D36  1C03               	skipc
  4639     0D37  0F74               	incfsz	___flge@ff1+2,w
  4640     0D38  2D3A               	goto	u2693
  4641     0D39  2D3B               	goto	u2694
  4642     0D3A                     u2693:
  4643     0D3A  02A2               	subwf	??___flge+2,f
  4644     0D3B                     u2694:
  4645     0D3B  0875               	movf	___flge@ff1+3,w
  4646     0D3C  1C03               	skipc
  4647     0D3D  0F75               	incfsz	___flge@ff1+3,w
  4648     0D3E  2D40               	goto	u2695
  4649     0D3F  2D41               	goto	u2696
  4650     0D40                     u2695:
  4651     0D40  02A3               	subwf	??___flge+3,f
  4652     0D41                     u2696:
  4653     0D41  0823               	movf	??___flge+3,w
  4654     0D42  00F5               	movwf	___flge@ff1+3
  4655     0D43  0822               	movf	??___flge+2,w
  4656     0D44  00F4               	movwf	___flge@ff1+2
  4657     0D45  0821               	movf	??___flge+1,w
  4658     0D46  00F3               	movwf	___flge@ff1+1
  4659     0D47  0820               	movf	??___flge,w
  4660     0D48  00F2               	movwf	___flge@ff1
  4661     0D49                     l1926:
  4662     0D49  1FF9               	btfss	___flge@ff2+3,7
  4663     0D4A  2D4C               	goto	u2701
  4664     0D4B  2D4D               	goto	u2700
  4665     0D4C                     u2701:
  4666     0D4C  2D71               	goto	l369
  4667     0D4D                     u2700:
  4668     0D4D                     l1928:
  4669     0D4D  3000               	movlw	0
  4670     0D4E  00A0               	movwf	??___flge
  4671     0D4F  3000               	movlw	0
  4672     0D50  00A1               	movwf	??___flge+1
  4673     0D51  3000               	movlw	0
  4674     0D52  00A2               	movwf	??___flge+2
  4675     0D53  3080               	movlw	128
  4676     0D54  00A3               	movwf	??___flge+3
  4677     0D55  0876               	movf	___flge@ff2,w
  4678     0D56  02A0               	subwf	??___flge,f
  4679     0D57  0877               	movf	___flge@ff2+1,w
  4680     0D58  1C03               	skipc
  4681     0D59  0F77               	incfsz	___flge@ff2+1,w
  4682     0D5A  2D5C               	goto	u2711
  4683     0D5B  2D5D               	goto	u2712
  4684     0D5C                     u2711:
  4685     0D5C  02A1               	subwf	??___flge+1,f
  4686     0D5D                     u2712:
  4687     0D5D  0878               	movf	___flge@ff2+2,w
  4688     0D5E  1C03               	skipc
  4689     0D5F  0F78               	incfsz	___flge@ff2+2,w
  4690     0D60  2D62               	goto	u2713
  4691     0D61  2D63               	goto	u2714
  4692     0D62                     u2713:
  4693     0D62  02A2               	subwf	??___flge+2,f
  4694     0D63                     u2714:
  4695     0D63  0879               	movf	___flge@ff2+3,w
  4696     0D64  1C03               	skipc
  4697     0D65  0F79               	incfsz	___flge@ff2+3,w
  4698     0D66  2D68               	goto	u2715
  4699     0D67  2D69               	goto	u2716
  4700     0D68                     u2715:
  4701     0D68  02A3               	subwf	??___flge+3,f
  4702     0D69                     u2716:
  4703     0D69  0823               	movf	??___flge+3,w
  4704     0D6A  00F9               	movwf	___flge@ff2+3
  4705     0D6B  0822               	movf	??___flge+2,w
  4706     0D6C  00F8               	movwf	___flge@ff2+2
  4707     0D6D  0821               	movf	??___flge+1,w
  4708     0D6E  00F7               	movwf	___flge@ff2+1
  4709     0D6F  0820               	movf	??___flge,w
  4710     0D70  00F6               	movwf	___flge@ff2
  4711     0D71                     l369:
  4712     0D71  3080               	movlw	128
  4713     0D72  06F5               	xorwf	___flge@ff1+3,f
  4714     0D73  3080               	movlw	128
  4715     0D74  06F9               	xorwf	___flge@ff2+3,f
  4716     0D75  0879               	movf	___flge@ff2+3,w
  4717     0D76  0275               	subwf	___flge@ff1+3,w
  4718     0D77  1D03               	skipz
  4719     0D78  2D83               	goto	u2725
  4720     0D79  0878               	movf	___flge@ff2+2,w
  4721     0D7A  0274               	subwf	___flge@ff1+2,w
  4722     0D7B  1D03               	skipz
  4723     0D7C  2D83               	goto	u2725
  4724     0D7D  0877               	movf	___flge@ff2+1,w
  4725     0D7E  0273               	subwf	___flge@ff1+1,w
  4726     0D7F  1D03               	skipz
  4727     0D80  2D83               	goto	u2725
  4728     0D81  0876               	movf	___flge@ff2,w
  4729     0D82  0272               	subwf	___flge@ff1,w
  4730     0D83                     u2725:
  4731     0D83  1803               	skipnc
  4732     0D84  2D86               	goto	u2721
  4733     0D85  2D87               	goto	u2720
  4734     0D86                     u2721:
  4735     0D86  2D89               	goto	l1932
  4736     0D87                     u2720:
  4737     0D87                     l1930:
  4738     0D87  1003               	clrc
  4739     0D88  2D8A               	goto	l374
  4740     0D89                     l1932:
  4741     0D89  1403               	setc
  4742     0D8A                     l374:
  4743     0D8A  0008               	return
  4744     0D8B                     __end_of___flge:
  4745                           
  4746                           	psect	text14
  4747     0C62                     __ptext14:	
  4748 ;; *************** function _TrataInt *****************
  4749 ;; Defined at:
  4750 ;;		line 58 in file "main.c"
  4751 ;; Parameters:    Size  Location     Type
  4752 ;;		None
  4753 ;; Auto vars:     Size  Location     Type
  4754 ;;		None
  4755 ;; Return value:  Size  Location     Type
  4756 ;;                  1    wreg      void 
  4757 ;; Registers used:
  4758 ;;		wreg
  4759 ;; Tracked objects:
  4760 ;;		On entry : 0/0
  4761 ;;		On exit  : 0/0
  4762 ;;		Unchanged: 0/0
  4763 ;; Data sizes:     COMMON   BANK0   BANK1   BANK3   BANK2
  4764 ;;      Params:         0       0       0       0       0
  4765 ;;      Locals:         0       0       0       0       0
  4766 ;;      Temps:          2       0       0       0       0
  4767 ;;      Totals:         2       0       0       0       0
  4768 ;;Total ram usage:        2 bytes
  4769 ;; Hardware stack levels used: 1
  4770 ;; This function calls:
  4771 ;;		Nothing
  4772 ;; This function is called by:
  4773 ;;		Interrupt level 1
  4774 ;; This function uses a non-reentrant model
  4775 ;;
  4776                           
  4777     0C62                     _TrataInt:	
  4778                           ;psect for function _TrataInt
  4779                           
  4780     0C62                     i1l1262:
  4781                           
  4782                           ;main.c: 60:   if (PIR1bits.ADIF)
  4783     0C62  1283               	bcf	3,5	;RP0=0, select bank0
  4784     0C63  1303               	bcf	3,6	;RP1=0, select bank0
  4785     0C64  1F0C               	btfss	12,6	;volatile
  4786     0C65  2C67               	goto	u141_21
  4787     0C66  2C68               	goto	u141_20
  4788     0C67                     u141_21:
  4789     0C67  2C73               	goto	i1l60
  4790     0C68                     u141_20:
  4791     0C68                     i1l1264:
  4792                           
  4793                           ;main.c: 61:      {;main.c: 62:         PIR1bits.ADIF = 0;
  4794     0C68  130C               	bcf	12,6	;volatile
  4795     0C69                     i1l1266:
  4796                           
  4797                           ;main.c: 63:         valor = (ADRESH << 8) | ADRESL;;
  4798     0C69  081E               	movf	30,w	;volatile
  4799     0C6A  00FB               	movwf	_valor+1
  4800     0C6B  1683               	bsf	3,5	;RP0=1, select bank1
  4801     0C6C  1303               	bcf	3,6	;RP1=0, select bank1
  4802     0C6D  081E               	movf	30,w	;volatile
  4803     0C6E  00FA               	movwf	_valor
  4804                           
  4805                           ;main.c: 64:         PORTB = (unsigned char)valor;
  4806     0C6F  087A               	movf	_valor,w
  4807     0C70  1283               	bcf	3,5	;RP0=0, select bank0
  4808     0C71  1303               	bcf	3,6	;RP1=0, select bank0
  4809     0C72  0086               	movwf	6	;volatile
  4810     0C73                     i1l60:
  4811     0C73  0871               	movf	??_TrataInt+1,w
  4812     0C74  008A               	movwf	10
  4813     0C75  0E70               	swapf	??_TrataInt,w
  4814     0C76  0083               	movwf	3
  4815     0C77  0EFE               	swapf	btemp,f
  4816     0C78  0E7E               	swapf	btemp,w
  4817     0C79  0009               	retfie
  4818     0C7A                     __end_of_TrataInt:
  4819     007E                     btemp	set	126	;btemp
  4820     007E                     wtemp0	set	126
  4821                           
  4822                           	psect	intentry
  4823     0004                     __pintentry:	
  4824                           ;incstack = 0
  4825                           ; Regs used in _TrataInt: [wreg]
  4826                           
  4827     0004                     interrupt_function:
  4828     007E                     saved_w	set	btemp
  4829     0004  00FE               	movwf	btemp
  4830     0005  0E03               	swapf	3,w
  4831     0006  00F0               	movwf	??_TrataInt
  4832     0007  080A               	movf	10,w
  4833     0008  00F1               	movwf	??_TrataInt+1
  4834     0009  120A  158A  2C62   	ljmp	_TrataInt
  4835                           
  4836                           	psect	config
  4837                           
  4838                           ;Config register CONFIG @ 0x2007
  4839                           ;	Oscillator Selection bits
  4840                           ;	FOSC = XT, XT oscillator
  4841                           ;	Watchdog Timer Enable bit
  4842                           ;	WDTE = OFF, WDT disabled
  4843                           ;	Power-up Timer Enable bit
  4844                           ;	PWRTE = OFF, PWRT disabled
  4845                           ;	Brown-out Reset Enable bit
  4846                           ;	BOREN = OFF, BOR disabled
  4847                           ;	Low-Voltage (Single-Supply) In-Circuit Serial Programming Enable bit
  4848                           ;	LVP = OFF, RB3 is digital I/O, HV on MCLR must be used for programming
  4849                           ;	Data EEPROM Memory Code Protection bit
  4850                           ;	CPD = OFF, Data EEPROM code protection off
  4851                           ;	Flash Program Memory Write Enable bits
  4852                           ;	WRT = OFF, Write protection off; all program memory may be written to by EECON control
  4853                           ;	In-Circuit Debugger Mode bit
  4854                           ;	DEBUG = 0x1, unprogrammed default
  4855                           ;	Flash Program Memory Code Protection bit
  4856                           ;	CP = OFF, Code protection off
  4857     2007                     	org	8199
  4858     2007  3F39               	dw	16185

Data Sizes:
    Strings     0
    Constant    0
    Data        0
    BSS         2
    Persistent  0
    Stack       0

Auto Spaces:
    Space          Size  Autos    Used
    COMMON           14     10      12
    BANK0            80     73      73
    BANK1            80     16      16
    BANK3            96      0       0
    BANK2            96      0       0

Pointer List with Targets:

    None.

Critical Paths under _main in COMMON

    _main->___fladd
    _main->___flge
    _main->___xxtofl
    _diminuir->_temporizer
    ___flmul->__Umul8_16
    _aumentar->_temporizer
    ___flsub->___fladd

Critical Paths under _TrataInt in COMMON

    None.

Critical Paths under _main in BANK0

    _main->_calcular_temperatura
    _calcular_temperatura->___fldiv
    ___flmul->__Umul8_16
    ___fldiv->___flmul
    ___flsub->___fladd

Critical Paths under _TrataInt in BANK0

    None.

Critical Paths under _main in BANK1

    None.

Critical Paths under _TrataInt in BANK1

    None.

Critical Paths under _main in BANK3

    None.

Critical Paths under _TrataInt in BANK3

    None.

Critical Paths under _main in BANK2

    None.

Critical Paths under _TrataInt in BANK2

    None.

Call Graph Tables:

 ---------------------------------------------------------------------------------
 (Depth) Function   	        Calls       Base Space   Used Autos Params    Refs
 ---------------------------------------------------------------------------------
 (0) _main                                                20    20      0   11121
                                             69 BANK0      4     4      0
                                              0 BANK1     16    16      0
                            ___fladd
                             ___flge
                            ___flsub
                           ___xxtofl
                           _aumentar
               _calcular_temperatura
                 _desligar_aquecedor
                           _diminuir
                    _ligar_aquecedor
                         _temporizer
 ---------------------------------------------------------------------------------
 (1) _ligar_aquecedor                                      0     0      0       0
 ---------------------------------------------------------------------------------
 (1) _diminuir                                             0     0      0       0
                         _temporizer
 ---------------------------------------------------------------------------------
 (1) _desligar_aquecedor                                   0     0      0       0
 ---------------------------------------------------------------------------------
 (1) _calcular_temperatura                                12     8      4    5085
                                             57 BANK0     12     8      4
                            ___fldiv
                            ___flmul
 ---------------------------------------------------------------------------------
 (2) ___flmul                                             26    18      8    3533
                                              5 BANK0     26    18      8
                          __Umul8_16
 ---------------------------------------------------------------------------------
 (3) __Umul8_16                                            9     7      2     980
                                              2 COMMON     4     2      2
                                              0 BANK0      5     5      0
 ---------------------------------------------------------------------------------
 (2) ___fldiv                                             26    18      8    1273
                                             31 BANK0     26    18      8
                            ___flmul (ARG)
 ---------------------------------------------------------------------------------
 (1) _aumentar                                             0     0      0       0
                         _temporizer
 ---------------------------------------------------------------------------------
 (1) _temporizer                                           2     2      0       0
                                              2 COMMON     2     2      0
 ---------------------------------------------------------------------------------
 (1) ___xxtofl                                            14    10      4     474
                                              2 COMMON     8     4      4
                                              0 BANK0      6     6      0
 ---------------------------------------------------------------------------------
 (1) ___flsub                                              8     0      8    2485
                                             12 BANK0      8     0      8
                            ___fladd
 ---------------------------------------------------------------------------------
 (2) ___fladd                                             20    12      8    2288
                                              2 COMMON     8     0      8
                                              0 BANK0     12    12      0
 ---------------------------------------------------------------------------------
 (1) ___flge                                              12     4      8     486
                                              2 COMMON     8     0      8
                                              0 BANK0      4     4      0
 ---------------------------------------------------------------------------------
 Estimated maximum stack depth 3
 ---------------------------------------------------------------------------------
 (Depth) Function   	        Calls       Base Space   Used Autos Params    Refs
 ---------------------------------------------------------------------------------
 (4) _TrataInt                                             2     2      0       0
                                              0 COMMON     2     2      0
 ---------------------------------------------------------------------------------
 Estimated maximum stack depth 4
 ---------------------------------------------------------------------------------

 Call Graph Graphs:

 _main (ROOT)
   ___fladd
   ___flge
   ___flsub
     ___fladd
   ___xxtofl
   _aumentar
     _temporizer
   _calcular_temperatura
     ___fldiv
       ___flmul (ARG)
         __Umul8_16
     ___flmul
   _desligar_aquecedor
   _diminuir
     _temporizer
   _ligar_aquecedor
   _temporizer

 _TrataInt (ROOT)

 Address spaces:
Name               Size   Autos  Total    Cost      Usage
BITCOMMON            E      0       0       0        0.0%
EEDATA             100      0       0       0        0.0%
NULL                 0      0       0       0        0.0%
CODE                 0      0       0       0        0.0%
COMMON               E      A       C       1       85.7%
BITSFR0              0      0       0       1        0.0%
SFR0                 0      0       0       1        0.0%
BITSFR1              0      0       0       2        0.0%
SFR1                 0      0       0       2        0.0%
STACK                0      0       0       2        0.0%
ABS                  0      0      65       3        0.0%
BITBANK0            50      0       0       4        0.0%
BITSFR3              0      0       0       4        0.0%
SFR3                 0      0       0       4        0.0%
BANK0               50     49      49       5       91.2%
BITSFR2              0      0       0       5        0.0%
SFR2                 0      0       0       5        0.0%
BITBANK1            50      0       0       6        0.0%
BANK1               50     10      10       7       20.0%
BITBANK3            60      0       0       8        0.0%
BANK3               60      0       0       9        0.0%
BITBANK2            60      0       0      10        0.0%
BANK2               60      0       0      11        0.0%
DATA                 0      0      65      12        0.0%


Microchip Technology PIC Macro Assembler V2.45 build 20230818022343 
Symbol Table                                                                                   Wed Nov 29 18:46:58 2023

                   ___fldiv@aexp 0058                     ___fldiv@bexp 0057                     ___fldiv@sign 0050  
                             l93 07FC                               l86 0C99                               l79 07E0  
                             l96 0C61                               l99 0C57              __Umul8_16@word_mpld 0022  
                            l102 0C53                              l510 0501                              l502 05B1  
                            l520 0547                              l514 0525                              l532 05B1  
                            l604 0CD4                              l374 0D8A                              l366 0D05  
                            l606 0CE6                              l535 0CBD                              l631 0E44  
                            l369 0D71                              l561 06FA                              l545 0608  
                            l642 0E0E                              l643 0E1A                              l547 0780  
                            l493 0438                              l629 0DAF                              l495 0411  
                            l567 076C                              l591 02C9                              l489 03B5  
                            l585 0359                     ___flmul@aexp 0033                     ___flmul@bexp 0038  
                   ___flmul@sign 0032                     ___flmul@temp 003D                     ___flmul@prod 0039  
                           l2100 0CCE                             l2102 0CDD                             l2110 001A  
                           l1400 036D                             l2104 0CE2                             l2200 029A  
                           l2120 002D                             l2112 001E                             l1410 0385  
                           l1402 0372                             l2210 02B2                             l2202 02A3  
                           l2130 0048                             l2122 0035                             l2114 0022  
                           l1500 0469                             l1420 0397                             l1412 0388  
                           l1404 037A                             l2220 02E1                             l2212 02C6  
                           l2204 02A9                             l2140 005F                             l2132 004C  
                           l2124 0037                             l2116 0023                             l2108 0015  
                           l2300 0E68                             l1510 0480                             l1502 0470  
                           l1430 03AB                             l1422 0398                             l1414 038E  
                           l1406 037B                             l2230 031C                             l2222 02E5  
                           l2206 02AD                             l2142 0061                             l2134 004D  
                           l2126 003F                             l2118 0028                             l2310 0E72  
                           l2302 0E69                             l1520 04DF                             l1504 0472  
                           l1512 0485                             l1440 03C5                             l1424 039D  
                           l1432 03AD                             l1416 038F                             l1408 037D  
                           l1600 05C5                             l2240 0347                             l2232 032B  
                           l2224 02FE                             l2216 02CE                             l2208 02AE  
                           l2160 00CE                             l2152 007C                             l2144 0069  
                           l2136 0052                             l2128 0044                             l2320 0E8A  
                           l2312 0E75                             l2304 0E6C                             l1522 04E4  
                           l1514 049B                             l1506 0476                             l1450 03CF  
                           l1442 03C7                             l1434 03BB                             l1426 03A2  
                           l1418 0393                             l1610 05DD                             l1602 05CA  
                           l2242 0348                             l2234 0335                             l2218 02D3  
                           l2226 0304                             l2170 0147                             l2162 00F8  
                           l2154 008A                             l2146 006E                             l2138 0057  
                           l2250 0781                             l2330 0F09                             l2322 0E8D  
                           l2314 0E78                             l2306 0E6D                             l1540 052C  
                           l1532 0517                             l1516 04D9                             l1524 04F3  
                           l1508 0477                             l1460 03D9                             l1452 03D1  
                           l1444 03C9                             l1436 03BF                             l1428 03AA  
                           l1700 06FF                             l1620 05F0                             l1612 05E2  
                           l1604 05D2                             l2236 0337                             l2244 034D  
                           l2228 0311                             l2180 01C3                             l2172 0164  
                           l2164 0114                             l2156 0097                             l2148 0073  
                           l2252 07D8                             l2340 0F61                             l2332 0F0E  
                           l2324 0EAA                             l2316 0E79                             l2308 0E6E  
                           l2260 0E4C                             l1550 053A                             l1542 052E  
                           l1534 0520                             l1526 0509                             l1518 04DD  
                           l1470 03E2                             l1462 03DB                             l1454 03D3  
                           l1446 03CB                             l1438 03C3                             l1390 035A  
                           l1702 0704                             l1710 0735                             l1630 0610  
                           l1622 05F5                             l1614 05E6                             l1606 05D3  
                           l2094 0CC1                             l2246 0351                             l2238 0343  
                           l2190 0275                             l2182 01EE                             l2174 0172  
                           l2166 0130                             l2158 00B2                             l2350 0FA4  
                           l2334 0F13                             l2326 0EDD                             l2318 0E83  
                           l2270 0E52                             l2262 0E4E                             l1560 0551  
                           l1552 053E                             l1544 0533                             l1536 0524  
                           l1528 050E                             l1480 0422                             l1472 03F9  
                           l1464 03DD                             l1456 03D5                             l1448 03CD  
                           l1392 035F                             l1720 076B                             l1712 0742  
                           l1704 0712                             l1640 062E                             l1632 061C  
                           l1624 05FD                             l1616 05EA                             l1608 05D5  
                           l2096 0CC3                             l2192 027E                             l2184 01FC  
                           l2176 018F                             l2168 0139                             l2352 0FD7  
                           l2344 0F7B                             l2336 0F52                             l2328 0EE3  
                           l2280 0E5C                             l2272 0E53                             l2264 0E4F  
                           l2256 0E45                             l1570 058A                             l1562 055F  
                           l1554 0544                             l1538 0529                             l1546 0535  
                           l1490 0441                             l1482 0423                             l1474 0415  
                           l1466 03DF                             l1458 03D7                             l1394 0363  
                           l1722 0770                             l1714 0750                             l1706 0716  
                           l1650 0659                             l1634 0620                             l1626 05FE  
                           l1618 05EB                             l2098 0CCA                             l2194 028C  
                           l2186 0227                             l2178 01A6                             l2346 0F80  
                           l2354 0FDC                             l2338 0F57                             l2290 0E63  
                           l2282 0E5D                             l2274 0E57                             l2266 0E50  
                           l2258 0E4A                             l1580 05A1                             l1572 058F  
                           l1564 0563                             l1548 0539                             l1484 042C  
                           l1476 041C                             l1468 03E1                             l1396 0367  
                           l1388 0C58                             l1724 0774                             l1716 075F  
                           l1708 072F                             l1660 067E                             l1652 0661  
                           l1644 0637                             l1628 0600                             l2196 0295  
                           l2188 024D                             l1900 07E8                             l2348 0F85  
                           l2356 0FF7                             l2292 0E64                             l2284 0E60  
                           l2276 0E58                             l2268 0E51                             l1582 05A3  
                           l1574 0597                             l1566 0581                             l1558 054C  
                           l1494 044A                             l1478 041E                             l1486 0430  
                           l1398 0368                             l1726 0776                             l1718 0763  
                           l1670 06A9                             l1662 067F                             l1654 0663  
                           l1646 0649                             l1638 0629                             l1590 05B2  
                           l2198 0299                             l1910 07F7                             l1902 07EA  
                           l2294 0E65                             l2286 0E61                             l2278 0E59  
                           l1920 0D19                             l1584 05A7                             l1576 059C  
                           l1568 0585                             l1496 0461                             l1488 043C  
                           l1728 077A                             l1680 06C6                             l1656 0668  
                           l1664 0688                             l1672 06AD                             l1648 0651  
                           l1592 05B7                             l1904 07EF                             l1912 0C54  
                           l2296 0E66                             l2288 0E62                             l1930 0D87  
                           l1922 0D21                             l1586 05AC                             l1578 059D  
                           l1498 0465                             l1690 06DE                             l1682 06CA  
                           l1674 06B3                             l1666 069A                             l1658 067A  
                           l1594 05BB                             l1914 0C50                             l1906 07F2  
                           l2298 0E67                             l1932 0D89                             l1924 0D25  
                           l1916 0CE7                             l1588 05B0                             l1692 06DF  
                           l1684 06CB                             l1676 06BB                             l1668 069B  
                           l1596 05BF                             l1908 07F5                             l1926 0D49  
                           l1918 0CFD                             l1950 0DB7                             l1942 0D8E  
                           l1694 06E3                             l1686 06D4                             l1678 06BD  
                           l1598 05C0                             l1928 0D4D                             l1936 0C9A  
                           l1960 0DD0                             l1944 0D93                             l1696 06F7  
                           l1688 06DA                             l1938 0C9E                             l1970 0DF9  
                           l1962 0DD7                             l1954 0DC0                             l1946 0D97  
                           l1890 0C89                             l1980 0E32                             l1972 0E04  
                           l1964 0DDB                             l1956 0DC3                             l1948 0DA7  
                           l1892 0C8B                             l1884 0C7A                             l1982 0E37  
                           l1974 0E08                             l1966 0DE9                             l1958 0DC7  
                           l1886 0C82                             l1894 0C90                             l1984 0E3B  
                           l1976 0E12                             l1968 0DF2                             l1896 0C94  
                           l1888 0C83                             l1986 0E3C                             l1978 0E1C  
                           l1898 07E1                             u2000 05F0                             u2001 05EF  
                           u2010 05F5                             u2011 05F4                             u2100 06B3  
                           u2020 0610                             u2101 06B2                             u2021 060F  
                           u2110 06BB                             u2030 062E                             u2111 06BA  
                           u2031 062D                             u2200 0716                             u2040 0668  
                           u3000 0057                             u2201 0715                             u2041 0667  
                           u3001 0056                             u2210 0725                             u2130 06CA  
                           u3010 006E                             u2131 06C9                             u3011 006D  
                           u1500 0367                             u2220 0742                             u3020 0073  
                           u1501 0366                             u2221 0741                             u2125 06BF  
                           u3021 0072                             u1510 036D                             u2230 075F  
                           u2150 06DE                             u2070 067E                             u1511 036C  
                           u2231 075E                             u2215 0720                             u2151 06DD  
                           u2071 067D                             u2055 066A                             u3111 01B5  
                           u3031 00C0                             u1600 0402                             u1520 0372  
                           u2240 0774                             u2160 06E3                             u3200 0299  
                           u3112 01BC                             u3032 00C7                             u1601 0400  
                           u1521 0371                             u2241 0773                             u2225 073E  
                           u2161 06E2                             u2145 06CD                             u2065 0673  
                           u3201 0298                             u3121 01E0                             u3113 01C3  
                           u3105 0191                             u3041 00DC                             u3033 00CE  
                           u1610 0403                             u1530 038E                             u2170 06F7  
                           u2090 069A                             u3122 01E7                             u3042 00E3  
                           u1531 038D                             u2235 075B                             u2171 06F6  
                           u2091 0699                             u3131 020B                             u3123 01EE  
                           u3051 0106                             u3043 00EA                             u1700 0469  
                           u1620 0415                             u1540 0397                             u2180 06FE  
                           u3300 032B                             u3220 02AD                             u3140 0233  
                           u3132 0212                             u3052 010D                             u1701 0468  
                           u1621 0414                             u1541 0396                             u2181 06FD  
                           u2085 0681                             u3301 032A                             u3221 02AC  
                           u3133 0219                             u3061 0122                             u3053 0114  
                           u1710 0476                             u1630 0422                             u1550 039D  
                           u2190 0704                             u3310 0347                             u3230 02B2  
                           u3062 0129                             u1711 0475                             u1631 0421  
                           u1551 039C                             u2191 0703                             u2095 0696  
                           u3311 0346                             u3231 02B1                             u3215 029C  
                           u3151 023F                             u3063 0130                             u1800 0524  
                           u1560 03A2                             u3240 02C6                             u3160 025B  
                           u3152 0246                             u3320 0EE3                             u1801 0523  
                           u1561 03A1                             u3305 0327                             u3241 02C5  
                           u3153 024D                             u3145 022E                             u3081 0156  
                           u3321 0EE2                             u1810 0529                             u1730 049B  
                           u1650 0438                             u1570 03BB                             u3250 02CD  
                           u3082 015D                             u3330 0F0E                             u1811 0528  
                           u1731 049A                             u1651 0437                             u1571 03BA  
                           u3251 02CC                             u3171 0267                             u3091 0181  
                           u3083 0164                             u3075 0132                             u3331 0F0D  
                           u2700 0D4D                             u1900 0581                             u1820 0533  
                           u1660 043C                             u1580 03BF                             u2620 0C82  
                           u3260 02D3                             u3172 026E                             u3092 0188  
                           u3340 0F57                             u2701 0D4C                             u1901 0580  
                           u1821 0532                             u1741 04B2                             u1733 0497  
                           u1725 0479                             u1661 043B                             u1645 0425  
                           u1581 03BE                             u2621 0C81                             u3261 02D2  
                           u3173 0275                             u3165 0256                             u3093 018F  
                           u3341 0F56                             u1910 058A                             u1830 0539  
                           u1750 04C6                             u1742 04B3                             u1670 0441  
                           u1590 03F9                             u2630 0C89                             u3270 02E5  
                           u3350 0F7A                             u2711 0D5C                             u1911 0589  
                           u1831 0538                             u1751 04C7                             u1743 04B8  
                           u1671 0440                             u1591 03F8                             u2631 0C88  
                           u3271 02E4                             u3351 0F79                             u2720 0D87  
                           u2712 0D5D                             u1920 058F                             u1840 053E  
                           u1760 04E4                             u1752 04CC                             u1744 04B9  
                           u3280 02F4                             u2640 07E8                             u3360 0FF7  
                           u2721 0D86                             u2713 0D62                             u1921 058E  
                           u1841 053D                             u1761 04E3                             u1753 04CD  
                           u1745 04BE                             u1681 0453                             u3185 0277  
                           u2641 07E7                             u3361 0FF6                             u2714 0D63  
                           u1930 059C                             u1850 0544                             u1770 0509  
                           u1746 04BF                             u1690 0465                             u1682 045A  
                           u2810 0E08                             u2730 0D93                             u3290 0311  
                           u2650 07EF                             u2715 0D68                             u1931 059B  
                           u1851 0543                             u1771 0508                             u1691 0464  
                           u1683 0461                             u1595 03F5                             u2811 0E07  
                           u2731 0D92                             u3291 0310                             u3195 028E  
                           u2651 07EE                             u2716 0D69                             u2660 0CFD  
                           u1940 05A1                             u1860 054B                             u1780 050E  
                           u2820 0E0E                             u2740 0D97                             u2725 0D83  
                           u2661 0CFC                             u1941 05A0                             u1861 054A  
                           u1781 050D                             u2821 0E0D                             u2805 0DFD  
                           u2741 0D96                             u3285 02EF                             u2670 0D19  
                           u1950 05B0                             u1870 0551                             u2830 0E12  
                           u2750 0DB7                             u2671 0D18                             u1951 05AF  
                           u1871 0550                             u2831 0E11                             u2751 0DB6  
                           u3295 030D                             u2680 0D25                             u1880 0563  
                           u2840 0E27                             u1960 05BF                             u2920 0CCE  
                           u2681 0D24                             u1881 0562                             u1961 05BE  
                           u2921 0CCD                             u3377 0E87                             u1890 0572  
                           u2850 0E37                             u2770 0DD6                             u1970 05C5  
                           u2691 0D34                             u1795 0519                             u2851 0E36  
                           u2771 0DD5                             u3387 0C5C                             u1971 05C4  
                           u2692 0D35                             u2860 0E3B                             u1980 05CA  
                           u2940 0CE2                             u2693 0D3A                             u2861 0E3A  
                           u2845 0E22                             u2765 0DC8                             u1981 05C9  
                           u2941 0CE1                             u2694 0D3B                             u2790 0DF8  
                           u1990 05EA                             u2950 0022                             u2695 0D40  
                           u1895 056D                             u2791 0DF7                             u1991 05E9  
                           u2935 0CD5                             u2951 0021                             u2696 0D41  
                           u2960 0028                             u2785 0DEA                             u2961 0027  
                           u2970 002D                             u2971 002C                             i1l60 0C73  
                           u2980 004C                             u2981 004B                             u2990 0052  
                           u2991 0051                             _main 0E45                 ?_ligar_aquecedor 0070  
                           btemp 007E                             start 000C                  ___fldiv@new_exp 0051  
                __end_of___fladd 05B2                            ?_main 0070                  __end_of___fldiv 0781  
                __end_of___flmul 035A                  __end_of___flsub 0CBE                            _PORTB 0006  
                          _PORTC 0007                            _TRISA 0085                            _TRISB 0086  
                          _TRISC 0087                            _valor 007A                            pclath 000A  
     __end_of_desligar_aquecedor 0C54                            status 0003                            wtemp0 007E  
                __initialization 000F                     __end_of_main 1000                           ??_main 0065  
            main@valor_do_sensor 00A4                 __end_of_TrataInt 0C7A                           _ADCON0 001F  
                         _ADCON1 009F                           _ADRESH 001E                           _ADRESL 009E  
                         i1l1262 0C62                           i1l1264 0C68                           i1l1266 0C69  
                         u141_20 0C68                           u141_21 0C67                 __end_of___xxtofl 0E45  
               __end_of_diminuir 07FD                           ___flge 0CE7                 __end_of_aumentar 0C9A  
                      ??___fladd 0020                        ??___fldiv 0047                        ??___flmul 002D  
                      ??___flsub 007A                           saved_w 007E                       ___flge@ff1 0072  
                     ___flge@ff2 0076                     ___xxtofl@arg 0022                     ___xxtofl@exp 0021  
                   ___xxtofl@val 0072          __end_of__initialization 0011                   __pcstackCOMMON 0070  
                 _OPTION_REGbits 0081                __end_of__Umul8_16 0CE7                       __pmaintext 0E45  
                        ?___flge 0072                        ?_TrataInt 0070                       __pintentry 0004  
                      ?___xxtofl 0072                        ?_diminuir 0070                        ?_aumentar 0070  
                        ___fladd 035A                          ___fldiv 05B2                       ??_TrataInt 0070  
             _desligar_aquecedor 0C50                          ___flmul 0015                          ___flsub 0C9A  
                        __ptext1 0C54                          __ptext2 07E1                          __ptext3 0C50  
                        __ptext4 0781                          __ptext5 0015                          __ptext6 0CBE  
                        __ptext7 05B2                          __ptext8 0C7A                          __ptext9 0C58  
            ?_desligar_aquecedor 0070                       ??___xxtofl 0076                       ??_diminuir 0074  
           end_of_initialization 0011                       ??_aumentar 0074             ??_desligar_aquecedor 0072  
                     _temporizer 0C58                        _PORTBbits 0006                        _PORTCbits 0007  
                      _PORTDbits 0008                      ___fladd@grs 002B                    ___xxtofl@sign 0020  
                      _TRISBbits 0086                      ___fldiv@grs 0053                      ___fldiv@rem 004C  
                    ___flmul@grs 0034                   __end_of___flge 0D8B        main@temperatura_do_sensor 00A8  
              ??_ligar_aquecedor 0072              start_initialization 000F                         ??___flge 0020  
                      __Umul8_16 0CBE        main@temperatura_requerida 00A0     __end_of_calcular_temperatura 07E1  
                    ?_temporizer 0070                        ___fladd@a 0076                        ___fladd@b 0072  
                      ___fldiv@a 003F                        ___fldiv@b 0043                        ___flmul@a 0029  
                      ___flmul@b 0025                      __pbssCOMMON 007A                        ___flsub@a 002C  
                      ___flsub@b 0030                        ___latbits 0002                    __pcstackBANK0 0020  
                  __pcstackBANK1 00A0        _calcular_temperatura$1002 0061                         ?___fladd 0072  
                       ?___fldiv 003F                         ?___flmul 0025                         ?___flsub 002C  
                     ?__Umul8_16 0072       main@temperatura_do_usuario 00AC                interrupt_function 0004  
                       _PIE1bits 008C                         _PIR1bits 000C                       _ADCON0bits 001F  
                     _ADCON1bits 009F             _calcular_temperatura 0781                  _ligar_aquecedor 0C54  
                       _TrataInt 0C62                      ??__Umul8_16 0074                         ___xxtofl 0D8B  
                       __ptext10 0D8B                         __ptext11 0C9A                         __ptext12 035A  
                       __ptext13 0CE7                         __ptext14 0C62                         _diminuir 07E1  
                       _aumentar 0C7A            ?_calcular_temperatura 0059                     ??_temporizer 0072  
                     _INTCONbits 000B                         intlevel1 0000          __end_of_ligar_aquecedor 0C58  
             __end_of_temporizer 0C62           __Umul8_16@multiplicand 0072                    ___fladd@signs 0028  
         ??_calcular_temperatura 0076  calcular_temperatura@temperatura 005D                     ___fladd@aexp 0029  
                   ___fladd@bexp 002A             __Umul8_16@multiplier 0024        calcular_temperatura@valor 0059  
              __Umul8_16@product 0020  
